(dp1
V\u8000
(lp2
I3
aI2
asV\u8604
(lp3
I1
asV\u8a87
(lp4
I1
asV\u6c08
(lp5
I1
asV\u8f0a
(lp6
I1
asV\u9b28
(lp7
I1
asV\u9810
(lp8
I2
aI1
asV\u9f95
(lp9
I1
asV\u6fae
(lp10
I1
asV\u4b9d
(lp11
I1
asV\u7020
(lp12
I1
asV\u74a3
(lp13
I1
asV\u9322
(lp14
I1
asV\u5aa7
(lp15
I1
asV\u7926
(lp16
I1
asV\u9da9
(lp17
I1
asV\u9c28
(lp18
I1
asV\u9d89
(lp19
I1
asV\u8cb3
(lp20
I1
asV\u6e34
(lp21
I3
aI2
asV\u92b7
(lp22
I1
asV\u9136
(lp23
I1
asV\u95b9
(lp24
I1
asV\u9438
(lp25
I1
asV\u98bb
(lp26
I1
asV\u585e
(lp27
I4
aI3
asV\u8ac7
(lp28
I1
asV\u8946
(lp29
I1
asV\u8c48
(lp30
I1
asV\u93cd
(lp31
I1
asV\u99d1
(lp32
I1
asV\u7662
(lp33
I1
asV\u7e54
(lp34
I1
asV\u8156
(lp35
I1
asV\u8edf
(lp36
I3
aI2
aI1
asV\u9060
(lp37
I4
aI3
aI2
aI1
asV\U000294e3
(lp38
I1
asV\u5dba
(lp39
I1
asV\u7664
(lp40
I1
asV\u7de9
(lp41
I1
asV\u5c68
(lp42
I1
asV\u9f6a
(lp43
I1
asV\u426c
(lp44
I1
asV\U000289f1
(lp45
I1
asV\u98e9
(lp46
I1
asV\u6b72
(lp47
I1
asV\u943f
(lp48
I1
asV\u55f9
(lp49
I1
asV\u9bfd
(lp50
I1
asV\u9eff
(lp51
I1
asV\u9d7e
(lp52
I1
asV\u8986
(lp53
I2
asV\u6c88
(lp54
I2
asV\u700b
(lp55
I1
asV\u528c
(lp56
I1
asV\u958e
(lp57
I1
asV\u9911
(lp58
I1
asV\u9c13
(lp59
I1
asV\u9b92
(lp60
I1
asV\u9f15
(lp61
I1
asV\u7e94
(lp62
I1
asV\u9418
(lp63
I1
asV\u6519
(lp64
I1
asV\u8b1d
(lp65
I1
asV\u6a9c
(lp66
I1
asV\u4e1f
(lp67
I1
asV\u7121
(lp68
I1
asV\U000293a2
(lp69
I1
asV\u7725
(lp70
I1
asV\u9a27
(lp71
I1
asV\u79a6
(lp72
I1
asV\u78ef
(lp73
I1
asV\u5faa
(lp74
I3
aI2
asV\u62ac
(lp75
I3
aI2
asV\U0002a62f
(lp76
I1
asV\u6c33
(lp77
I1
asV\u6bb2
(lp78
I1
asV\u6f35
(lp79
I1
asV\u9237
(lp80
I1
asV\u983b
(lp81
I1
asV\u5abc
(lp82
I1
asV\u7dbe
(lp83
I1
asV\u95ca
(lp84
I1
asV\u66c4
(lp85
I1
asV\u8cc8
(lp86
I1
asV\u904b
(lp87
I3
aI1
asV\u934d
(lp88
I1
asV\u92cc
(lp89
I1
asV\u55ce
(lp90
I1
asV\u9951
(lp91
I1
asV\u5c53
(lp92
I1
asV\u9bd2
(lp93
I1
asV\u9f55
(lp94
I1
asV\u885b
(lp95
I2
aI1
asV\u8adc
(lp96
I1
asV\u7463
(lp97
I1
asV\u53e2
(lp98
I1
asV\u76e4
(lp99
I1
asV\u59e6
(lp100
I1
asV\U00029d69
(lp101
I1
asV\U00029fea
(lp102
I1
asV\u62ec
(lp103
I2
asV\u866f
(lp104
I1
asV\U000298fa
(lp105
I1
asV\u91d2
(lp106
I1
asV\u4f75
(lp107
I1
asV\u5277
(lp108
I1
asV\u71f6
(lp109
I1
asV\u7e7f
(lp110
I1
asV\u6583
(lp111
I1
asV\u8806
(lp112
I1
asV\u6c89
(lp113
I3
aI2
asV\u8d08
(lp114
I1
asV\u528d
(lp115
I1
asV\u978f
(lp116
I1
asV\u940e
(lp117
I1
asV\u9f59
(lp118
I1
asV\u7d93
(lp119
I1
asV\u5f14
(lp120
I1
asV\u6397
(lp121
I1
asV\u8499
(lp122
I3
aI2
asV\u8518
(lp123
I1
asV\u861a
(lp124
I1
asV\u925b
(lp125
I1
asV\u9384
(lp126
I1
asV\u99b1
(lp127
I1
asV\u95a3
(lp128
I1
asV\u7dda
(lp129
I1
asV\u56a5
(lp130
I1
asV\u9826
(lp131
I1
asV\u9d28
(lp132
I1
asV\u61ab
(lp133
I1
asV\u4f34
(lp134
I3
aI2
asV\u93b7
(lp135
I1
asV\U0002963a
(lp136
I1
asV\u5abd
(lp137
I1
asV\u9d72
(lp138
I1
asV\u8e34
(lp139
I1
asV\u8846
(lp140
I1
asV\u560d
(lp141
I1
asV\u91cb
(lp142
I1
asV\u6e4a
(lp143
I1
asV\U000298d1
(lp144
I1
asV\u5950
(lp145
I1
asV\u9dd3
(lp146
I1
asV\U00021ed5
(lp147
I1
asV\u9f54
(lp148
I1
asV\u8056
(lp149
I10
aI8
aI6
aI4
aI1
asV\u8558
(lp150
I1
asV\u6add
(lp151
I1
asV\u8b5c
(lp152
I1
asV\u6fdf
(lp153
I1
asV\u9262
(lp154
I1
asV\u5764
(lp155
I2
asV\u9be7
(lp156
I1
asV\u9ce9
(lp157
I1
asV\u7d68
(lp158
I1
asV\u7e6a
(lp159
I1
asV\u87ef
(lp160
I1
asV\u8df3
(lp161
I3
aI2
asV\u4e92
(lp162
I3
asV\u93f7
(lp163
I1
asV\u99fb
(lp164
I1
asV\u8a6b
(lp165
I1
asV\u8001
(lp166
I2
asV\u71c1
(lp167
I1
asV\u8784
(lp168
I1
asV\u8e8a
(lp169
I4
aI1
asV\u720d
(lp170
I1
asV\u938c
(lp171
I1
asV\u9811
(lp172
I1
asV\u5019
(lp173
I3
aI2
asV\u7d13
(lp174
I1
asV\u7e15
(lp175
I1
asV\u9f94
(lp176
I1
asV\u8598
(lp177
I1
asV\u8a1d
(lp178
I1
asV\u8b9c
(lp179
I1
asV\u8f1f
(lp180
I1
asV\u8c9e
(lp181
I3
aI2
aI1
asV\u7523
(lp182
I1
asV\u72a2
(lp183
I1
asV\u9b27
(lp184
I1
asV\u9c29
(lp185
I1
asV\u7e1d
(lp186
I1
asV\u812b
(lp187
I1
asV\u9eaa
(lp188
I1
asV\u8831
(lp189
I1
asV\u8ab2
(lp190
I1
asV\u5439
(lp191
I3
aI2
asV\u76ba
(lp192
I3
aI2
aI1
asV\u84f4
(lp193
I1
asV\u87c4
(lp194
I1
asV\u53cd
(lp195
I4
aI2
asV\u514b
(lp196
I5
asV\u8eca
(lp197
I1
asV\u924d
(lp198
I1
asV\u93cc
(lp199
I1
asV\u774f
(lp200
I1
asV\u99d0
(lp201
I1
asV\u9d53
(lp202
I1
asV\u9ad2
(lp203
I1
asV\u7e55
(lp204
I1
asV\u8ef8
(lp205
I1
asV\u5225
(lp206
I1
asV\U0002895b
(lp207
I1
asV\u4b9e
(lp208
I1
asV\u8f5f
(lp209
I1
asV\u8cde
(lp210
I1
asV\u9061
(lp211
I1
asV\u52e2
(lp212
I1
asV\u7665
(lp213
I2
aI1
asV\u7b67
(lp214
I1
asV\u7c69
(lp215
I1
asV\u9de8
(lp216
I1
asV\u816b
(lp217
I1
asV\u84ee
(lp218
I1
asV\u8ff4
(lp219
I2
aI1
asV\u7377
(lp220
I1
asV\u9479
(lp221
I1
asV\u7cfe
(lp222
I1
asV\u6200
(lp223
I3
aI2
aI1
asV\u862d
(lp224
I1
asV\u8d0a
(lp225
I1
asV\u300c
(lp226
I1
asV\u9b91
(lp227
I1
asV\u7e93
(lp228
I1
asV\u9912
(lp229
I1
asV\u932f
(lp230
I1
asV\u8c9f
(lp231
I1
asV\u8f1e
(lp232
I1
asV\u93a1
(lp233
I1
asV\u9220
(lp234
I1
asV\u95a5
(lp235
I1
asV\u7db0
(lp236
I1
asV\u5fa9
(lp237
I1
asV\u62ab
(lp238
I3
aI2
asV\u802c
(lp239
I1
asV\u672e
(lp240
I1
asV\u8932
(lp241
I1
asV\u6db5
(lp242
I3
aI2
asV\u50b7
(lp243
I1
asV\u9336
(lp244
I1
asV\u5638
(lp245
I1
asV\u9b8b
(lp246
I1
asV\u7060
(lp247
I1
asV\u4e48
(lp248
I4
aI3
aI2
asV\u51cd
(lp249
I1
asV\u74cf
(lp250
I1
asV\u9952
(lp251
I1
asV\u9c54
(lp252
I1
asV\u6adb
(lp253
I1
asV\u93e1
(lp254
I1
asV\u9291
(lp255
I1
asV\u76e3
(lp256
I1
asV\u7162
(lp257
I1
asV\u95e5
(lp258
I1
asV\u7464
(lp259
I1
asV\u78e7
(lp260
I1
asV\u9d6a
(lp261
I1
asV\u84ef
(lp262
I1
asV\u8a70
(lp263
I1
asV\u8972
(lp264
I1
asV\u6df5
(lp265
I1
asV\u9c68
(lp266
I1
asV\u9678
(lp267
I1
asV\u5afb
(lp268
I1
asV\u58be
(lp269
I1
asV\u6514
(lp270
I1
asV\u6301
(lp271
I3
aI2
asV\u6182
(lp272
I1
asV\u8f09
(lp273
I3
aI2
aI1
asV\u6e88
(lp274
I1
asV\u920b
(lp275
I1
asV\u940f
(lp276
I1
asV\u7b11
(lp277
I3
aI2
asV\u7d15
(lp278
I1
asV\u5d17
(lp279
I1
asV\u6396
(lp280
I3
aI2
asV\u6698
(lp281
I1
asV\u8a1b
(lp282
I1
asV\u9321
(lp283
I1
asV\u52a0
(lp284
I2
asV\u9f47
(lp285
I1
asV\u9ba6
(lp286
I1
asV\u9ea8
(lp287
I1
asV\u9daa
(lp288
I1
asV\u87ae
(lp289
I1
asV\u8ab0
(lp290
I1
asV\u89b2
(lp291
I1
asV\u8cb4
(lp292
I1
asV\u96b8
(lp293
I1
asV\u98bc
(lp294
I1
asV\u6643
(lp295
I3
aI2
asV\u64c4
(lp296
I1
asV\u6bc6
(lp297
I1
asV\u8f49
(lp298
I3
aI2
aI1
asV\u524b
(lp299
I1
asV\u914d
(lp300
I3
aI2
asV\u99d2
(lp301
I1
asV\u7d55
(lp302
I1
asV\u8a5b
(lp303
I1
asV\u895d
(lp304
I1
asV\u88dc
(lp305
I1
asV\u5361
(lp306
I4
asV\u9663
(lp307
I1
asV\u9867
(lp308
I1
asV\u5be6
(lp309
I1
asV\u7f69
(lp310
I3
aI2
asV\u9ee8
(lp311
I1
asV\u826b
(lp312
I1
asV\u846f
(lp313
I1
asV\u8af0
(lp314
I1
asV\u8cf4
(lp315
I4
aI3
aI1
asV\u5077
(lp316
I3
aI2
asV\u7779
(lp317
I4
asV\u98fc
(lp318
I1
asV\u9bd4
(lp319
I1
asV\u6504
(lp320
I1
asV\u8e89
(lp321
I1
asV\u8f08
(lp322
I1
asV\u8435
(lp323
I1
asV\u958f
(lp324
I1
asV\u9812
(lp325
I1
asV\u7d14
(lp326
I1
asV\u6d17
(lp327
I2
asV\u689d
(lp328
I1
asV\u9320
(lp329
I1
asV\U000279a7
(lp330
I1
asV\u9ea9
(lp331
I1
asV\u83ab
(lp332
I4
asV\u65af
(lp333
I5
asV\u9d09
(lp334
I1
asV\u7032
(lp335
I1
asV\u4d34
(lp336
I1
asV\u51b7
(lp337
I2
asV\u5236
(lp338
I3
aI2
asV\u943a
(lp339
I1
asV\u993c
(lp340
I1
asV\u7dbf
(lp341
I1
asV\u7e3e
(lp342
I1
asV\u9d1c
(lp343
I1
asV\u8a46
(lp344
I1
asV\u4f48
(lp345
I1
asV\u514c
(lp346
I1
asV\u9852
(lp347
I1
asV\u6f38
(lp348
I1
asV\u6bdb
(lp349
I4
asV\u558e
(lp350
I1
asV\u88dd
(lp351
I3
aI2
aI1
asV\u8ddf
(lp352
I3
aI2
asV\u6e5e
(lp353
I1
asV\u9360
(lp354
I1
asV\u54e5
(lp355
I5
asV\u99e7
(lp356
I1
asV\u9a66
(lp357
I1
asV\u5ee9
(lp358
I1
asV\u7c6a
(lp359
I1
asV\u8af1
(lp360
I1
asV\u8b70
(lp361
I1
asV\u8cf5
(lp362
I1
asV\u91f7
(lp363
I1
asV\u9276
(lp364
I1
asV\u58fd
(lp365
I1
asV\u597c
(lp366
I1
asV\u9dff
(lp367
I1
asV\u7e7e
(lp368
I1
asV\u7a2e
(lp369
I1
asV\u6703
(lp370
I1
asV\u8907
(lp371
I1
asV\u8a86
(lp372
I1
asV\u4e09
(lp373
I3
asV\u300d
(lp374
I1
asV\u968e
(lp375
I1
asV\u9b90
(lp376
I1
asV\u5d94
(lp377
I1
asV\u7d17
(lp378
I1
asV\u8b1b
(lp379
I1
asV\u4e9e
(lp380
I4
aI1
asV\u53a0
(lp381
I1
asV\u50a2
(lp382
I2
aI1
asV\u9425
(lp383
I1
asV\u95a4
(lp384
I1
asV\u5927
(lp385
I4
asV\U00029df0
(lp386
I1
asV\u7fa8
(lp387
I1
asV\u8ef2
(lp388
I1
asV\u8a31
(lp389
I3
aI1
asV\u6bb0
(lp390
I1
asV\u8f33
(lp391
I1
asV\u68b2
(lp392
I1
asV\u8db4
(lp393
I3
aI2
asV\u5137
(lp394
I1
asV\u92b6
(lp395
I1
asV\U00029639
(lp396
I1
asV\u983d
(lp397
I1
asV\u7d3f
(lp398
I1
asV\u63c0
(lp399
I1
asV\u944a
(lp400
I1
asV\u8947
(lp401
I1
asV\u934b
(lp402
I1
asV\u8cca
(lp403
I1
asV\u554f
(lp404
I1
asV\u93a2
(lp405
I1
asV\u5c55
(lp406
I3
aI2
asV\u7dd4
(lp407
I1
asV\u62d6
(lp408
I3
aI2
asV\u64da
(lp409
I3
aI2
aI1
asV\u885d
(lp410
I1
asV\U000289dc
(lp411
I1
asV\u9465
(lp412
I1
asV\u95e4
(lp413
I1
asV\u5967
(lp414
I2
aI1
asV\u7e69
(lp415
I1
asV\u7e7d
(lp416
I1
asV\u636b
(lp417
I1
asV\u89a6
(lp418
I1
asV\u77d3
(lp419
I1
asV\u8a71
(lp420
I1
asV\u68f2
(lp421
I1
asV\u6b7f
(lp422
I1
asV\u92f6
(lp423
I1
asV\u5679
(lp424
I1
asV\u8b0a
(lp425
I1
asV\u9283
(lp426
I1
asV\u528f
(lp427
I1
asV\u9c10
(lp428
I1
asV\u5f12
(lp429
I1
asV\u9b95
(lp430
I1
asV\u9a14
(lp431
I1
asV\u6697
(lp432
I3
aI2
asV\u6516
(lp433
I1
asV\u6a9f
(lp434
I1
asV\u95a1
(lp435
I1
asV\u9420
(lp436
I1
asV\u90a3
(lp437
I2
asV\u9722
(lp438
I1
asV\u9d26
(lp439
I1
asV\u64ab
(lp440
I1
asV\u5b2a
(lp441
I1
asV\u68b3
(lp442
I3
aI2
asV\u6f32
(lp443
I1
asV\u8a34
(lp444
I1
asV\u56b7
(lp445
I3
aI2
asV\u593e
(lp446
I3
aI2
aI1
asV\u990a
(lp447
I1
asV\u7e1b
(lp448
I1
asV\u8b4a
(lp449
I1
asV\u97cd
(lp450
I1
asV\u92cf
(lp451
I1
asV\u7dd1
(lp452
I1
asV\u58d3
(lp453
I3
aI2
aI1
asV\u9862
(lp454
I1
asV\u9bd5
(lp455
I1
asV\u4fdd
(lp456
I4
aI3
asV\u6adf
(lp457
I1
asV\u95e1
(lp458
I1
asV\u9460
(lp459
I1
asV\u9264
(lp460
I1
asV\u7d66
(lp461
I1
asV\u99e9
(lp462
I1
asV\u7868
(lp463
I1
asV\u616e
(lp464
I1
asV\u4c70
(lp465
I1
asV\u7576
(lp466
I3
aI2
aI1
asV\u91f9
(lp467
I1
asV\u9078
(lp468
I1
asV\u534e
(lp469
I3
aI2
asV\u737a
(lp470
I1
asV\u7e7c
(lp471
I1
asV\u5aff
(lp472
I1
asV\u8003
(lp473
I3
aI2
asV\u8305
(lp474
I5
asV\u940b
(lp475
I1
asV\u8b8a
(lp476
I3
aI2
aI1
asV\u570d
(lp477
I3
aI2
aI1
asV\u568c
(lp478
I1
asV\u5d11
(lp479
I1
asV\u9813
(lp480
I1
asV\u7def
(lp481
I1
asV\u8098
(lp482
I4
asV\u8f1d
(lp483
I1
asV\u8a1f
(lp484
I1
asV\u7006
(lp485
I1
asV\u52f1
(lp486
I1
asV\u9023
(lp487
I3
aI2
aI1
asV\u7e27
(lp488
I1
asV\u7370
(lp489
I1
asV\u5929
(lp490
I4
asV\u98a8
(lp491
I1
asV\u9baa
(lp492
I1
asV\u97f3
(lp493
I3
asV\u61ae
(lp494
I1
asV\u4cb0
(lp495
I1
asV\u8fb2
(lp496
I1
asV\u95b6
(lp497
I1
asV\u9c3b
(lp498
I1
asV\u936e
(lp499
I1
asV\u7f3d
(lp500
I1
asV\u9ebc
(lp501
I2
aI1
asV\u8541
(lp502
I1
asV\u84c0
(lp503
I1
asV\u744b
(lp504
I1
asV\u774d
(lp505
I1
asV\u56cc
(lp506
I1
asV\u9d51
(lp507
I1
asV\u5132
(lp508
I1
asV\u9853
(lp509
I1
asV\u7fd2
(lp510
I1
asV\u9ad4
(lp511
I1
asV\u63da
(lp512
I1
asV\u6a5f
(lp513
I3
aI1
asV\U00029951
(lp514
I1
asV\u7063
(lp515
I1
asV\u9365
(lp516
I1
asV\u92e4
(lp517
I1
asV\u9de6
(lp518
I1
asV\u5969
(lp519
I1
asV\u9bea
(lp520
I1
asV\u66ec
(lp521
I1
asV\u8cf0
(lp522
I1
asV\u4af4
(lp523
I1
asV\u55f6
(lp524
I1
asV\u93fa
(lp525
I1
asV\u7a7f
(lp526
I3
aI2
asV\u8a01
(lp527
I1
asV\u8183
(lp528
I1
asV\u6602
(lp529
I3
aI2
asV\u9257
(lp530
I1
asV\u6f87
(lp531
I1
asV\u6c06
(lp532
I2
asV\u958b
(lp533
I3
aI2
aI1
asV\u6a0a
(lp534
I3
asV\u7380
(lp535
I1
asV\u300e
(lp536
I1
asV\u7d10
(lp537
I3
aI1
asV\u6416
(lp538
I1
asV\u6e9d
(lp539
I1
asV\u8f1c
(lp540
I1
asV\u5d84
(lp541
I1
asV\u9df9
(lp542
I1
asV\u91a3
(lp543
I1
asV\u92a5
(lp544
I1
asV\u78a9
(lp545
I1
asV\u9928
(lp546
I1
asV\u9a2a
(lp547
I1
asV\u672c
(lp548
I3
aI2
asV\u802e
(lp549
I1
asV\u4e32
(lp550
I5
aI2
asV\u5436
(lp551
I1
asV\u5138
(lp552
I1
asV\u7dbb
(lp553
I1
asV\u923a
(lp554
I1
asV\u9ebd
(lp555
I2
aI1
asV\u5834
(lp556
I1
asV\u64c1
(lp557
I1
asV\u6642
(lp558
I1
asV\u95cb
(lp559
I1
asV\u96cd
(lp560
I2
asV\u9463
(lp561
I1
asV\u904e
(lp562
I1
asV\u7d50
(lp563
I1
asV\u59d3
(lp564
I2
asV\u7e52
(lp565
I1
asV\u9ad5
(lp566
I1
asV\u7b54
(lp567
I2
asV\u6158
(lp568
I1
asV\u885e
(lp569
I2
asV\u54e1
(lp570
I1
asV\u91e3
(lp571
I1
asV\u913a
(lp572
I1
asV\u92e5
(lp573
I1
asV\u9364
(lp574
I1
asV\u58e9
(lp575
I1
asV\u5dbd
(lp576
I1
asV\u9a6a
(lp577
I1
asV\u83ef
(lp578
I1
asV\u9c3c
(lp579
I1
asV\u8d70
(lp580
I3
aI2
asV\u69f3
(lp581
I1
asV\u8b74
(lp582
I1
asV\u57f7
(lp583
I2
aI1
asV\u50f9
(lp584
I1
asV\u7dfb
(lp585
I1
asV\u927a
(lp586
I1
asV\u9efd
(lp587
I1
asV\u9bff
(lp588
I1
asV\u8580
(lp589
I1
asV\u6384
(lp590
I1
asV\u8f07
(lp591
I1
asV\u760d
(lp592
I1
asV\u930f
(lp593
I1
asV\u7c11
(lp594
I1
asV\u7d90
(lp595
I1
asV\u9913
(lp596
I1
asV\u8d1b
(lp597
I1
asV\u889e
(lp598
I1
asV\u9c5f
(lp599
I1
asV\u9225
(lp600
I1
asV\u53a4
(lp601
I1
asV\u7aaa
(lp602
I1
asV\u662d
(lp603
I2
asV\u7bc9
(lp604
I1
asV\u8933
(lp605
I1
asV\u9d3b
(lp606
I1
asV\u7e3d
(lp607
I1
asV\u98be
(lp608
I1
asV\u4f47
(lp609
I1
asV\u97cc
(lp610
I1
asV\u9b74
(lp611
I1
asV\u9a55
(lp612
I1
asV\u7bd4
(lp613
I1
asV\u81d8
(lp614
I1
asV\u62da
(lp615
I2
aI1
asV\u8fdc
(lp616
I4
asV\u6b5f
(lp617
I1
asV\u95e0
(lp618
I1
asV\u96e2
(lp619
I1
asV\u93e4
(lp620
I1
asV\u7aea
(lp621
I1
asV\u87ec
(lp622
I1
asV\u6ef2
(lp623
I1
asV\u8a75
(lp624
I1
asV\u9e7d
(lp625
I1
asV\u5b7f
(lp626
I1
asV\u98fe
(lp627
I1
asV\U0002a600
(lp628
I1
asV\u8a08
(lp629
I3
aI1
asV\u958d
(lp630
I1
asV\u908f
(lp631
I1
asV\u5f91
(lp632
I1
asV\u7e10
(lp633
I1
asV\u9d12
(lp634
I1
asV\u7995
(lp635
I1
asV\u6399
(lp636
I3
aI2
aI1
asV\u8218
(lp637
I1
asV\u7341
(lp638
I1
asV\u689f
(lp639
I1
asV\u6b1e
(lp640
I1
asV\u92a3
(lp641
I1
asV\u7522
(lp642
I1
asV\u66ab
(lp643
I1
asV\u792a
(lp644
I1
asV\u842c
(lp645
I3
aI2
aI1
asV\u80af
(lp646
I2
asV\u7c5c
(lp647
I1
asV\u6fb1
(lp648
I1
asV\u6ab3
(lp649
I1
asV\u9238
(lp650
I1
asV\u513a
(lp651
I1
asV\u7dbd
(lp652
I1
asV\u5c3c
(lp653
I4
aI3
asV\u8cc7
(lp654
I4
aI3
aI1
asV\u8f46
(lp655
I1
asV\u6a48
(lp656
I1
asV\u96cb
(lp657
I1
asV\u694a
(lp658
I2
aI1
asV\u95cd
(lp659
I1
asV\u944c
(lp660
I1
asV\u70cf
(lp661
I4
aI1
asV\u734e
(lp662
I1
asV\u7e50
(lp663
I1
asV\u9d52
(lp664
I1
asV\u99d5
(lp665
I3
aI2
aI1
asV\u9854
(lp666
I1
asV\u8edb
(lp667
I1
asV\u615a
(lp668
I1
asV\u68df
(lp669
I1
asV\u57e1
(lp670
I1
asV\u5660
(lp671
I1
asV\u92e3
(lp672
I1
asV\u5562
(lp673
I1
asV\u7064
(lp674
I1
asV\u7ce7
(lp675
I1
asV\u9f66
(lp676
I1
asV\u7be9
(lp677
I1
asV\u596a
(lp678
I1
asV\u9d93
(lp679
I1
asV\u6ff1
(lp680
I1
asV\u5be9
(lp681
I1
asV\u8af3
(lp682
I1
asV\u8a12
(lp683
I1
asV\u93f9
(lp684
I1
asV\u9278
(lp685
I2
aI1
asV\u9dfd
(lp686
I1
asV\u98ff
(lp687
I1
asV\u8f14
(lp688
I1
asV\u5a41
(lp689
I1
asV\u6582
(lp690
I1
asV\u8105
(lp691
I1
asV\u4f86
(lp692
I3
aI2
aI1
asV\u760b
(lp693
I1
asV\u700f
(lp694
I1
asV\u9d92
(lp695
I1
asV\u9915
(lp696
I1
asV\u6417
(lp697
I1
asV\u6e1b
(lp698
I1
asV\u619a
(lp699
I1
asV\u881f
(lp700
I1
asV\u6b9e
(lp701
I1
asV\u9223
(lp702
I1
asV\u5147
(lp703
I1
asV\u9c27
(lp704
I1
asV\u9b29
(lp705
I1
asV\u6b77
(lp706
I1
asV\u79aa
(lp707
I1
asV\u852d
(lp708
I1
asV\u6af3
(lp709
I1
asV\u8db2
(lp710
I1
asV\u77b6
(lp711
I1
asV\u9874
(lp712
I1
asV\u65c2
(lp713
I1
asV\u8b49
(lp714
I1
asV\u964b
(lp715
I3
aI2
asV\u7dd2
(lp716
I1
asV\u8457
(lp717
I4
aI2
asV\u81da
(lp718
I1
asV\u8cdc
(lp719
I1
asV\u7761
(lp720
I3
aI2
asV\u56e0
(lp721
I3
aI2
asV\u95e2
(lp722
I1
asV\u7165
(lp723
I1
asV\u9c67
(lp724
I1
asV\u856d
(lp725
I2
aI1
asV\u64ec
(lp726
I1
asV\u806f
(lp727
I1
asV\u63ee
(lp728
I3
aI2
aI1
asV\u4ef0
(lp729
I4
asV\u8a73
(lp730
I1
asV\u6975
(lp731
I1
asV\u9477
(lp732
I1
asV\u52f8
(lp733
I1
asV\u91fa
(lp734
I1
asV\u9cfc
(lp735
I1
asV\u6383
(lp736
I3
aI1
asV\u6085
(lp737
I1
asV\u6d87
(lp738
I1
asV\u928d
(lp739
I1
asV\u6a89
(lp740
I1
asV\u5cf4
(lp741
I1
asV\u750c
(lp742
I1
asV\u920e
(lp743
I1
asV\u9b93
(lp744
I1
asV\u9c12
(lp745
I1
asV\u7895
(lp746
I1
asV\u9914
(lp747
I1
asV\u6597
(lp748
I3
aI2
asV\u8f9b
(lp749
I3
asV\u8c9d
(lp750
I3
aI2
aI1
asV\u8d1c
(lp751
I1
asV\u6a1e
(lp752
I1
asV\u93a3
(lp753
I1
asV\u5da7
(lp754
I1
asV\U00029e26
(lp755
I1
asV\u7aa9
(lp756
I1
asV\u7b28
(lp757
I3
asV\u6f86
(lp758
I1
asV\u652c
(lp759
I1
asV\u71dc
(lp760
I1
asV\u4bb3
(lp761
I1
asV\u68b5
(lp762
I2
asV\u955f
(lp763
I1
asV\u92b9
(lp764
I1
asV\u9338
(lp765
I1
asV\u96de
(lp766
I1
asV\u7d3c
(lp767
I1
asV\u79bf
(lp768
I1
asV\u9a3e
(lp769
I1
asV\u6144
(lp770
I1
asV\u8ac9
(lp771
I1
asV\u97cb
(lp772
I1
asV\u884a
(lp773
I1
asV\u524e
(lp774
I1
asV\u7ed1
(lp775
I3
asV\u98e2
(lp776
I1
asV\u300f
(lp777
I1
asV\u62d9
(lp778
I2
asV\u6cdd
(lp779
I1
asV\u8a5e
(lp780
I1
asV\u76e1
(lp781
I1
asV\u9760
(lp782
I3
aI2
asV\u763a
(lp783
I1
asV\u50e5
(lp784
I1
asV\u5167
(lp785
I1
asV\u9b68
(lp786
I1
asV\u6a62
(lp787
I1
asV\u8a13
(lp788
I1
asV\u6f70
(lp789
I1
asV\u72f9
(lp790
I1
asV\u7378
(lp791
I1
asV\u907a
(lp792
I2
aI1
asV\u5cfd
(lp793
I1
asV\u99ff
(lp794
I1
asV\u6894
(lp795
I1
asV\u8d07
(lp796
I1
asV\u770b
(lp797
I3
aI2
asV\u940d
(lp798
I1
asV\u958c
(lp799
I1
asV\u7e11
(lp800
I1
asV\u9f90
(lp801
I1
asV\u56c5
(lp802
I1
asV\u8f1b
(lp803
I1
asV\u9e1b
(lp804
I1
asV\u8a9e
(lp805
I3
aI2
aI1
asV\u7621
(lp806
I1
asV\u819a
(lp807
I1
asV\u7d1d
(lp808
I1
asV\u65ac
(lp809
I1
asV\u8b33
(lp810
I1
asV\u8cb2
(lp811
I1
asV\u69b4
(lp812
I2
asV\u7537
(lp813
I4
aI3
asV\u56b6
(lp814
I1
asV\u9239
(lp815
I1
asV\u93b8
(lp816
I1
asV\u8b9e
(lp817
I1
asV\u7c3d
(lp818
I1
asV\u5dbc
(lp819
I1
asV\u993f
(lp820
I1
asV\u68ca
(lp821
I1
asV\u95cc
(lp822
I1
asV\u5e79
(lp823
I2
aI1
asV\u99d4
(lp824
I1
asV\u6557
(lp825
I1
asV\u66d6
(lp826
I1
asV\u8259
(lp827
I1
asV\u6f5b
(lp828
I1
asV\u5df4
(lp829
I7
aI3
asV\u537b
(lp830
I1
asV\u8ade
(lp831
I1
asV\u7661
(lp832
I1
asV\u78d1
(lp833
I1
asV\u91e4
(lp834
I1
asV\u7a69
(lp835
I1
asV\u707d
(lp836
I1
asV\u98ea
(lp837
I1
asV\u7dd3
(lp838
I1
asV\u6ff0
(lp839
I1
asV\u89f4
(lp840
I1
asV\u9577
(lp841
I1
asV\u797f
(lp842
I1
asV\u8f54
(lp843
I1
asV\u5d81
(lp844
I1
asV\u8b02
(lp845
I1
asV\u93d7
(lp846
I1
asV\u76de
(lp847
I1
asV\U0002a106
(lp848
I1
asV\U0002a056
(lp849
I1
asV\u9b8d
(lp850
I1
asV\u9a0c
(lp851
I1
asV\u7e8f
(lp852
I3
aI2
aI1
asV\u9312
(lp853
I1
asV\u5614
(lp854
I1
asV\u4a97
(lp855
I1
asV\u6558
(lp856
I1
asV\u8d99
(lp857
I1
asV\u6f1a
(lp858
I1
asV\u851e
(lp859
I1
asV\u79a1
(lp860
I1
asV\u9b22
(lp861
I1
asV\u7fa5
(lp862
I1
asV\u72a7
(lp863
I1
asV\u73a9
(lp864
I2
asV\u95a9
(lp865
I1
asV\u8add
(lp866
I1
asV\u6bad
(lp867
I1
asV\u64b3
(lp868
I1
asV\u8332
(lp869
I1
asV\u9936
(lp870
I1
asV\u7db9
(lp871
I1
asV\u9cf2
(lp872
I1
asV\u8cc3
(lp873
I1
asV\u85c9
(lp874
I2
asV\u58cb
(lp875
I1
asV\u7a4c
(lp876
I1
asV\u9ecf
(lp877
I3
aI2
asV\u7d4e
(lp878
I1
asV\u91d1
(lp879
I2
asV\u8ad7
(lp880
I1
asV\u8956
(lp881
I1
asV\u790e
(lp882
I1
asV\u655e
(lp883
I3
aI2
asV\u99e1
(lp884
I1
asV\u7591
(lp885
I3
aI2
asV\u9b62
(lp886
I1
asV\u5be7
(lp887
I1
asV\u9410
(lp888
I1
asV\u55e9
(lp889
I1
asV\u5468
(lp890
I3
asV\u776a
(lp891
I2
asV\u8a6c
(lp892
I1
asV\u6eef
(lp893
I1
asV\u6d6e
(lp894
I3
aI2
asV\u7c3e
(lp895
I1
asV\u6372
(lp896
I1
asV\u67f5
(lp897
I1
asV\u5df9
(lp898
I1
asV\u9c78
(lp899
I1
asV\u93fd
(lp900
I1
asV\U00028b82
(lp901
I1
asV\u8f05
(lp902
I1
asV\u8207
(lp903
I3
aI2
aI1
asV\u6488
(lp904
I1
asV\u9b0d
(lp905
I1
asV\u9e0f
(lp906
I1
asV\u9090
(lp907
I1
asV\u9413
(lp908
I1
asV\u9694
(lp909
I3
aI2
asV\u8a17
(lp910
I1
asV\u8996
(lp911
I4
aI1
asV\u7e43
(lp912
I1
asV\u9921
(lp913
I1
asV\u9c23
(lp914
I1
asV\u9227
(lp915
I1
asV\u77aa
(lp916
I3
aI2
asV\u8b2d
(lp917
I1
asV\u8aac
(lp918
I1
asV\u53ad
(lp919
I1
asV\u8a72
(lp920
I1
asV\u9a37
(lp921
I1
asV\u7d39
(lp922
I1
asV\u92bc
(lp923
I1
asV\u963f
(lp924
I8
aI4
asV\u95be
(lp925
I1
asV\u8f45
(lp926
I1
asV\u6ec4
(lp927
I1
asV\u584b
(lp928
I1
asV\u7b4d
(lp929
I1
asV\u6f22
(lp930
I1
asV\u8a57
(lp931
I1
asV\u865f
(lp932
I1
asV\u9b58
(lp933
I1
asV\u58e0
(lp934
I1
asV\u9c63
(lp935
I1
asV\u5be2
(lp936
I1
asV\u5f65
(lp937
I1
asV\u71e6
(lp938
I1
asV\u8526
(lp939
I1
asV\u8b6d
(lp940
I1
asV\u6aec
(lp941
I1
asV\u6e6f
(lp942
I1
asV\u6c3e
(lp943
I2
asV\u6473
(lp944
I1
asV\u5dd2
(lp945
I1
asV\u99f6
(lp946
I1
asV\U00029d79
(lp947
I1
asV\u537d
(lp948
I1
asV\u92fc
(lp949
I1
asV\u75fe
(lp950
I1
asV\u6a02
(lp951
I3
aI2
aI1
asV\u98ad
(lp952
I1
asV\u860a
(lp953
I1
asV\u5b0c
(lp954
I1
asV\u5c0e
(lp955
I1
asV\u5091
(lp956
I1
asV\u5110
(lp957
I1
asV\u9593
(lp958
I1
asV\u9212
(lp959
I1
asV\u5695
(lp960
I1
asV\u5aaf
(lp961
I1
asV\u6c99
(lp962
I6
aI5
aI2
asV\u829d
(lp963
I2
asV\U000298a1
(lp964
I1
asV\u5920
(lp965
I1
asV\u7da3
(lp966
I1
asV\u9ea5
(lp967
I1
asV\u93a7
(lp968
I1
asV\u7026
(lp969
I1
asV\u7528
(lp970
I3
aI2
asV\U000289ab
(lp971
I1
asV\u8b2c
(lp972
I1
asV\u8faf
(lp973
I1
asV\u85b3
(lp974
I1
asV\u6232
(lp975
I1
asV\u6734
(lp976
I4
asV\u8940
(lp977
I1
asV\u6ec5
(lp978
I1
asV\u8f44
(lp979
I1
asV\u6046
(lp980
I1
asV\u920d
(lp981
I1
asV\u5b4c
(lp982
I1
asV\u50d1
(lp983
I1
asV\u95d3
(lp984
I1
asV\U00029754
(lp985
I1
asV\u8cd9
(lp986
I1
asV\u7de3
(lp987
I1
asV\u7a62
(lp988
I1
asV\u9df8
(lp989
I1
asV\u966a
(lp990
I3
aI2
asV\u8aed
(lp991
I1
asV\u8b0f
(lp992
I1
asV\u60f1
(lp993
I1
asV\u9c3e
(lp994
I1
asV\u6774
(lp995
I1
asV\u9bf7
(lp996
I1
asV\u7cf9
(lp997
I1
asV\u9e15
(lp998
I1
asV\u5e7a
(lp999
I4
aI3
aI2
aI1
asV\u72fd
(lp1000
I1
asV\u737c
(lp1001
I1
asV\u97ff
(lp1002
I3
aI2
aI1
asV\u947e
(lp1003
I1
asV\U0002a086
(lp1004
I1
asV\u8588
(lp1005
I1
asV\u9a0d
(lp1006
I1
asV\u5011
(lp1007
I1
asV\u8b17
(lp1008
I1
asV\u611b
(lp1009
I3
aI2
aI1
asV\u8e9a
(lp1010
I1
asV\u849e
(lp1011
I1
asV\u9821
(lp1012
I1
asV\u9d23
(lp1013
I1
asV\u5e25
(lp1014
I1
asV\u95a8
(lp1015
I1
asV\u96aa
(lp1016
I1
asV\u8a2d
(lp1017
I1
asV\u8f2f
(lp1018
I1
asV1
(lp1019
I5
aI4
asV\u61c9
(lp1020
I3
aI2
aI1
asV\u9df2
(lp1021
I1
asV\u98b6
(lp1022
I1
asV\u7c39
(lp1023
I1
asV\u5db8
(lp1024
I1
asV\u513b
(lp1025
I1
asV\u923d
(lp1026
I1
asV\u89c0
(lp1027
I1
asV\u934a
(lp1028
I2
aI1
asV\u8449
(lp1029
I2
aI1
asV\u994b
(lp1030
I1
asV\u9a4d
(lp1031
I1
asV\u6523
(lp1032
I1
asV\u9f4f
(lp1033
I1
asV\u7051
(lp1034
I1
asV\u91d0
(lp1035
I1
asV\u5553
(lp1036
I1
asV\u92d2
(lp1037
I1
asV\u68d6
(lp1038
I1
asV\u6c59
(lp1039
I1
asV\u5db4
(lp1040
I1
asV\u875f
(lp1041
I1
asV\u81fa
(lp1042
I1
asV\u7469
(lp1043
I1
asV\u56ea
(lp1044
I1
asV\u8a6d
(lp1045
I1
asV\u6f6f
(lp1046
I1
asV\u7d73
(lp1047
I1
asV\u9b77
(lp1048
I1
asV\u92a0
(lp1049
I1
asV\u727d
(lp1050
I3
aI2
aI1
asV\u8a00
(lp1051
I4
asV\u798d
(lp1052
I1
asV\u980c
(lp1053
I1
asV\u9210
(lp1054
I1
asV\u9112
(lp1055
I1
asV\u9414
(lp1056
I1
asV\u6b16
(lp1057
I1
asV\u8085
(lp1058
I1
asV\u649f
(lp1059
I1
asV\u7ba1
(lp1060
I3
aI2
asV\u9a20
(lp1061
I1
asV\u5922
(lp1062
I3
aI2
aI1
asV\u9da5
(lp1063
I1
asV\u9c24
(lp1064
I1
asV\u9326
(lp1065
I1
asV\u8caf
(lp1066
I1
asV\u8f2e
(lp1067
I1
asV\u6230
(lp1068
I3
aI2
aI1
asV\u98b7
(lp1069
I1
asV\u5fb9
(lp1070
I1
asV\u5e38
(lp1071
I2
asV\u92bb
(lp1072
I1
asV\u7d3a
(lp1073
I1
asV\u903c
(lp1074
I3
aI2
asV\u773e
(lp1075
I1
asV\u580a
(lp1076
I1
asV\u6346
(lp1077
I3
aI2
asV\u7dac
(lp1078
I1
asV\u59cd
(lp1079
I1
asV\u984c
(lp1080
I1
asV\u7f4e
(lp1081
I1
asV\u93d1
(lp1082
I1
asV\u7152
(lp1083
I1
asV\u95d5
(lp1084
I1
asV\u9454
(lp1085
I1
asV\u68d7
(lp1086
I1
asV\u8b56
(lp1087
I1
asV\u4e58
(lp1088
I3
aI2
asV\u9be1
(lp1089
I1
asV\u7a60
(lp1090
I1
asV\u5ee3
(lp1091
I1
asV\u9962
(lp1092
I1
asV\u9de5
(lp1093
I1
asV\u5c64
(lp1094
I1
asV\u8aeb
(lp1095
I1
asV\u9d15
(lp1096
I1
asV\u8f3f
(lp1097
I1
asV\u7ff9
(lp1098
I1
asV\u7e78
(lp1099
I1
asV\u52fb
(lp1100
I1
asV\u7d7a
(lp1101
I1
asV\u907c
(lp1102
I1
asV\u8b01
(lp1103
I1
asV\u9bc0
(lp1104
I1
asV\u8d05
(lp1105
I1
asV\u6709
(lp1106
I3
aI2
asV\u6688
(lp1107
I1
asV\u7a0b
(lp1108
I4
asV\u858a
(lp1109
I1
asV\u9c0f
(lp1110
I1
asV\u9f8e
(lp1111
I1
asV\u7613
(lp1112
I1
asV\u5192
(lp1113
I3
aI2
asV\u7515
(lp1114
I1
asV\u8b96
(lp1115
I1
asV\u8493
(lp1116
I1
asV\u879e
(lp1117
I1
asV\u5b21
(lp1118
I1
asV\u7e23
(lp1119
I1
asV\u7027
(lp1120
I1
asV\u93a6
(lp1121
I1
asV\u96a8
(lp1122
I3
aI2
aI1
asV\u55aa
(lp1123
I1
asV\u8fae
(lp1124
I1
asV\u6331
(lp1125
I1
asV\u61b2
(lp1126
I1
asV\u9837
(lp1127
I1
asV\u9bb6
(lp1128
I1
asV\u523b
(lp1129
I3
aI2
asV\u9dba
(lp1130
I1
asV\u743f
(lp1131
I1
asV\u8cc4
(lp1132
I1
asV\u7c60
(lp1133
I1
asV\u9a4b
(lp1134
I1
asV\u5653
(lp1135
I1
asV\u71d2
(lp1136
I3
aI2
aI1
asV\u74d4
(lp1137
I1
asV\u6f59
(lp1138
I1
asV\u7db4
(lp1139
I1
asV\u625b
(lp1140
I3
aI2
asV\u6dda
(lp1141
I1
asV\u645f
(lp1142
I3
aI2
aI1
asV\u7ae0
(lp1143
I4
asV\u5e63
(lp1144
I1
asV\u99e2
(lp1145
I1
asV\u7067
(lp1146
I1
asV\u93e6
(lp1147
I1
asV\u6a6b
(lp1148
I1
asV\u4e26
(lp1149
I1
asV\u696d
(lp1150
I1
asV\u4fee
(lp1151
I2
asV\u6371
(lp1152
I1
asV\u61f2
(lp1153
I1
asV\u6575
(lp1154
I1
asV\u64f4
(lp1155
I1
asV\u5bf6
(lp1156
I2
aI1
asV\u927b
(lp1157
I1
asV\u9dfa
(lp1158
I1
asV\u947f
(lp1159
I1
asV\u6a81
(lp1160
I1
asV\u8b00
(lp1161
I1
asV\u8d04
(lp1162
I1
asV\u6689
(lp1163
I1
asV\u7b8b
(lp1164
I1
asV\u840a
(lp1165
I1
asV\u990c
(lp1166
I1
asV\u7d8f
(lp1167
I1
asV\u5291
(lp1168
I1
asV\u9310
(lp1169
I1
asV\u9bf6
(lp1170
I1
asV\u8a16
(lp1171
I1
asV\u4e99
(lp1172
I1
asV\u8b05
(lp1173
I1
asV\u639b
(lp1174
I1
asV\u611c
(lp1175
I1
asV\u859f
(lp1176
I1
asV\u861e
(lp1177
I1
asV\u8607
(lp1178
I3
aI1
asV\u9226
(lp1179
I1
asV\u5728
(lp1180
I3
aI2
asV\u6bab
(lp1181
I1
asV\u62b1
(lp1182
I3
aI2
asV\u9109
(lp1183
I1
asV\u9a36
(lp1184
I1
asV\u53bb
(lp1185
I3
aI2
asV\u9c3a
(lp1186
I1
asV\u513c
(lp1187
I1
asV\u95bf
(lp1188
I1
asV\u4b40
(lp1189
I1
asV\u6fc3
(lp1190
I1
asV\u938a
(lp1191
I1
asV\u8cc5
(lp1192
I1
asV\u61c7
(lp1193
I1
asV\u66c9
(lp1194
I1
asV\u7a6b
(lp1195
I1
asV\u7bcb
(lp1196
I1
asV\u994c
(lp1197
I1
asV\u97d3
(lp1198
I1
asV\u9a0f
(lp1199
I1
asV\u8a56
(lp1200
I1
asV\u6ed9
(lp1201
I1
asV\u5665
(lp1202
I1
asV\u63db
(lp1203
I1
asV\u5862
(lp1204
I1
asV\u9ce5
(lp1205
I1
asV\u91e7
(lp1206
I1
asV\u9266
(lp1207
I1
asV\u9768
(lp1208
I1
asV\u746a
(lp1209
I1
asV\u896c
(lp1210
I1
asV\u5c69
(lp1211
I1
asV\u67f3
(lp1212
I3
asV\u8072
(lp1213
I1
asV\u89bf
(lp1214
I1
asV\u5de8
(lp1215
I2
asV\u9c7a
(lp1216
I1
asV\u616b
(lp1217
I1
asV\u6a01
(lp1218
I1
asV\u8b80
(lp1219
I1
asV\u8f03
(lp1220
I2
aI1
asV\u5b0b
(lp1221
I1
asV\u93c3
(lp1222
I1
asV\u9211
(lp1223
I1
asV\u7919
(lp1224
I1
asV\u5713
(lp1225
I1
asV\u5442
(lp1226
I1
asV\u9594
(lp1227
I1
asV\u6e19
(lp1228
I1
asV\u9926
(lp1229
I1
asV\u9b9a
(lp1230
I1
asV\u9c25
(lp1231
I1
asV\u9127
(lp1232
I1
asV\u92a6
(lp1233
I1
asV\u5629
(lp1234
I1
asV\u8b2b
(lp1235
I1
asV\u89ac
(lp1236
I1
asV\u4eae
(lp1237
I3
aI2
asV\u6231
(lp1238
I1
asV\u6435
(lp1239
I1
asV\u85b4
(lp1240
I2
aI1
asV\u9937
(lp1241
I1
asV\u7ab6
(lp1242
I1
asV\u7e39
(lp1243
I1
asV\u733b
(lp1244
I1
asV\u8a41
(lp1245
I1
asV\u6bc0
(lp1246
I1
asV\u5377
(lp1247
I2
asV\u6649
(lp1248
I1
asV\u87c8
(lp1249
I1
asV\u64ca
(lp1250
I1
asV\u984d
(lp1251
I1
asV\u9251
(lp1252
I1
asV\u93d0
(lp1253
I1
asV\u9455
(lp1254
I1
asV\u95d4
(lp1255
I1
asV\u8ad6
(lp1256
I2
aI1
asV\u4e59
(lp1257
I3
asV\u6fd8
(lp1258
I1
asV\u8cda
(lp1259
I1
asV\u7c23
(lp1260
I1
asV\u7a61
(lp1261
I1
asV\u8ed1
(lp1262
I1
asV\u9f63
(lp1263
I1
asV\u58e2
(lp1264
I1
asV\u7167
(lp1265
I3
aI2
asV\u92e6
(lp1266
I1
asV\u7669
(lp1267
I1
asV\u8b6b
(lp1268
I1
asV\u54ea
(lp1269
I2
asV\u8271
(lp1270
I1
asV\u60f2
(lp1271
I1
asV\u85f4
(lp1272
I1
asV\u7af6
(lp1273
I1
asV\u9e79
(lp1274
I1
asV\u737b
(lp1275
I1
asV\u9cfe
(lp1276
I1
asV\u507d
(lp1277
I1
asV\u71fc
(lp1278
I1
asV\u76fe
(lp1279
I3
aI2
asV\u6506
(lp1280
I1
asV\u9f8d
(lp1281
I1
asV\u9e0c
(lp1282
I1
asV\u990e
(lp1283
I1
asV\u9591
(lp1284
I3
aI2
aI1
asV\u5410
(lp1285
I3
asV\u5712
(lp1286
I1
asV\u9214
(lp1287
I1
asV\u8d16
(lp1288
I1
asV\u8b1a
(lp1289
I1
asV\u9da1
(lp1290
I1
asV\u9c20
(lp1291
I1
asV\u9a24
(lp1292
I1
asV\u7526
(lp1293
I1
asV\u7028
(lp1294
I1
asV\u8cab
(lp1295
I1
asV\u8fad
(lp1296
I2
aI1
asV\u6e2c
(lp1297
I1
asV\u6aaf
(lp1298
I1
asV\u6234
(lp1299
I3
aI2
asV\u5eb7
(lp1300
I3
aI2
asV\u99b9
(lp1301
I1
asV\u9838
(lp1302
I1
asV\u97bd
(lp1303
I1
asV\u8f42
(lp1304
I1
asV\U00028bc5
(lp1305
I1
asV\u66c7
(lp1306
I1
asV\u8546
(lp1307
I1
asV\u81c9
(lp1308
I1
asV\U0002a048
(lp1309
I1
asV\u834a
(lp1310
I1
asV\u5fcd
(lp1311
I3
aI2
asV\u9acf
(lp1312
I1
asV\u4ed7
(lp1313
I3
aI2
asV\u78b8
(lp1314
I1
asV\u8b5a
(lp1315
I1
asV\u865c
(lp1316
I1
asV\u7de1
(lp1317
I1
asV\u9c60
(lp1318
I1
asV\u78e3
(lp1319
I1
asV\u9a64
(lp1320
I1
asV\u76e7
(lp1321
I3
aI1
asV\u91e9
(lp1322
I1
asV\u8ceb
(lp1323
I1
asV\u736a
(lp1324
I1
asV\u60f3
(lp1325
I3
aI2
asV\u9ef7
(lp1326
I1
asV\u7d76
(lp1327
I1
asV\u9b7a
(lp1328
I1
asV\u77fd
(lp1329
I2
aI1
asV\u767c
(lp1330
I1
asV\u6b05
(lp1331
I1
asV\u8a84
(lp1332
I1
asV\u6607
(lp1333
I1
asV\u5c0b
(lp1334
I3
aI2
aI1
asV\u838a
(lp1335
I1
asV\u7e8c
(lp1336
I1
asV\u7a0f
(lp1337
I1
asV\u798e
(lp1338
I1
asV\u9315
(lp1339
I1
asV\u6898
(lp1340
I1
asV\u5f4e
(lp1341
I1
asV\u8b9a
(lp1342
I1
asV\u671d
(lp1343
I4
aI3
aI2
asV\u7d21
(lp1344
I1
asV\u551a
(lp1345
I1
asV\u9b25
(lp1346
I1
asV\u7627
(lp1347
I1
asV\u5f70
(lp1348
I4
asV\u6c2b
(lp1349
I1
asV\u93aa
(lp1350
I1
asV\u5d50
(lp1351
I1
asV\u69ae
(lp1352
I1
asV\u64b0
(lp1353
I2
asV\u6f2c
(lp1354
I1
asV\u7e37
(lp1355
I1
asV\u98b8
(lp1356
I1
asV\u9bba
(lp1357
I1
asV\u973d
(lp1358
I1
asV\u923f
(lp1359
I1
asV\u71be
(lp1360
I1
asV\u6d41
(lp1361
I4
aI3
aI2
asV\u8cc0
(lp1362
I1
asV\u4fc2
(lp1363
I1
asV\u8b45
(lp1364
I1
asV\u8ac4
(lp1365
I1
asV\u4f4d
(lp1366
I3
asV\u5c4b
(lp1367
I2
asV\u9ecc
(lp1368
I1
asV\u9a4f
(lp1369
I1
asV\u99ce
(lp1370
I1
asV\u845b
(lp1371
I2
asV\u61de
(lp1372
I1
asV\u7d61
(lp1373
I1
asV\u9b65
(lp1374
I1
asV\u7667
(lp1375
I1
asV\u7169
(lp1376
I1
asV\u50e8
(lp1377
I1
asV\u8c6b
(lp1378
I3
aI2
asV\U000293ea
(lp1379
I1
asV\u6eec
(lp1380
I1
asV\u64f0
(lp1381
I1
asV\u8073
(lp1382
I1
asV\u87f2
(lp1383
I1
asV\u7df6
(lp1384
I1
asV\u9c52
(lp1385
I1
asV\u927f
(lp1386
I1
asV\u71fe
(lp1387
I1
asV\u4c81
(lp1388
I1
asV\u8a85
(lp1389
I1
asV\u8b04
(lp1390
I1
asV\u8089
(lp1391
I3
asV\u8108
(lp1392
I1
asV\u820a
(lp1393
I1
asV\u7e8d
(lp1394
I1
asV\u7b8f
(lp1395
I1
asV\u980e
(lp1396
I1
asV\u6f97
(lp1397
I1
asV\u8918
(lp1398
I1
asV\u5ca1
(lp1399
I1
asV\u5b24
(lp1400
I1
asV\u77a7
(lp1401
I3
aI2
asV\u9426
(lp1402
I1
asV\u522a
(lp1403
I1
asV\u8f2c
(lp1404
I1
asV\u6baf
(lp1405
I1
asV\u76dc
(lp1406
I1
asV\U00029938
(lp1407
I1
asV\u95bb
(lp1408
I3
aI1
asV\u570b
(lp1409
I1
asV\u93bf
(lp1410
I1
asV\u703e
(lp1411
I1
asV\u8cc1
(lp1412
I1
asV\u9d61
(lp1413
I1
asV\u540d
(lp1414
I2
asV\u5dcb
(lp1415
I1
asV\u7336
(lp1416
I1
asV\u7f4c
(lp1417
I1
asV\u984e
(lp1418
I1
asV\u91d3
(lp1419
I1
asV\u7652
(lp1420
I1
asV\u52d5
(lp1421
I3
aI2
aI1
asV\u9354
(lp1422
I1
asV\u805e
(lp1423
I3
aI2
aI1
asV\u9d60
(lp1424
I1
asV\u7e62
(lp1425
I1
asV\u5b64
(lp1426
I3
aI2
asV\u5168
(lp1427
I2
asV\u64f1
(lp1428
I1
asV\u5169
(lp1429
I1
asV\U0002a1f3
(lp1430
I1
asV\u8cbf
(lp1431
I1
asV\u7a7a
(lp1432
I3
aI2
asV\u4e82
(lp1433
I1
asV\u6a05
(lp1434
I1
asV\u7d0b
(lp1435
I1
asV\u5f8c
(lp1436
I1
asV\u5411
(lp1437
I3
aI2
asV\u9590
(lp1438
I1
asV\U0002b692
(lp1439
I1
asV\u9215
(lp1440
I1
asV\u9394
(lp1441
I1
asV\u8f17
(lp1442
I1
asV\u6c96
(lp1443
I1
asV\u8998
(lp1444
I1
asV\u651b
(lp1445
I1
asV\u8a9a
(lp1446
I1
asV\u609e
(lp1447
I1
asV\u7c21
(lp1448
I2
aI1
asV\u7da0
(lp1449
I1
asV\u9727
(lp1450
I1
asV\u74a6
(lp1451
I1
asV\u52aa
(lp1452
I4
aI3
aI2
asV\u4e2d
(lp1453
I2
asV\u65b0
(lp1454
I5
aI2
asV\u5f37
(lp1455
I1
asV\u9839
(lp1456
I1
asV\u7375
(lp1457
I1
asV\u7aba
(lp1458
I1
asV\u563d
(lp1459
I1
asV\u77bc
(lp1460
I1
asV\u50be
(lp1461
I1
asV\u9344
(lp1462
I1
asV\u61cd
(lp1463
I1
asV\u5fcc
(lp1464
I2
asV\u9b4f
(lp1465
I2
asV\u9451
(lp1466
I1
asV\u95d0
(lp1467
I1
asV\u9255
(lp1468
I1
asV\u6ada
(lp1469
I1
asV\u665d
(lp1470
I1
asV\u647b
(lp1471
I1
asV\u7de0
(lp1472
I1
asV\u5ee2
(lp1473
I1
asV\u9a65
(lp1474
I1
asV\u9be4
(lp1475
I1
asV\u8a50
(lp1476
I1
asV\u9069
(lp1477
I1
asV\u92ea
(lp1478
I3
aI2
aI1
asV\u8b6f
(lp1479
I2
aI1
asV\u8173
(lp1480
I1
asV\u83f4
(lp1481
I1
asV\u5f77
(lp1482
I2
asV\u9cf6
(lp1483
I1
asV\u5879
(lp1484
I1
asV\u99f8
(lp1485
I1
asV\u91fe
(lp1486
I1
asV\u967d
(lp1487
I3
aI1
asV\u8706
(lp1488
I1
asV\u8208
(lp1489
I1
asV\u9c0c
(lp1490
I1
asV\u95ac
(lp1491
I1
asV\u6173
(lp1492
I1
asV\u9293
(lp1493
I1
asV\u7658
(lp1494
I1
asV\u8a18
(lp1495
I3
aI2
aI1
asV\u5dd4
(lp1496
I1
asV\u8adb
(lp1497
I1
asV\u6b04
(lp1498
I2
aI1
asV\u7d22
(lp1499
I5
aI4
asV\u9824
(lp1500
I1
asV\U00029726
(lp1501
I1
asV\u93a9
(lp1502
I1
asV\u8eab
(lp1503
I3
aI2
asV\u512a
(lp1504
I4
aI1
asV\u6c2c
(lp1505
I1
asV\u9a38
(lp1506
I1
asV\u96bb
(lp1507
I1
asV\u993a
(lp1508
I1
asV\u95bd
(lp1509
I1
asV\u4fc1
(lp1510
I1
asV\u6ac3
(lp1511
I1
asV\u64c7
(lp1512
I1
asV\u63c9
(lp1513
I3
aI2
asV\u7f77
(lp1514
I1
asV\u7c4c
(lp1515
I1
asV\U000298cf
(lp1516
I1
asV\u9b4e
(lp1517
I1
asV\u91d5
(lp1518
I1
asV\u9054
(lp1519
I3
aI2
aI1
asV\u8a58
(lp1520
I1
asV\u85dd
(lp1521
I3
aI2
aI1
asV\u645c
(lp1522
I1
asV\u70ba
(lp1523
I1
asV\u5864
(lp1524
I1
asV\u9766
(lp1525
I1
asV\u8eeb
(lp1526
I1
asV\u4c6c
(lp1527
I1
asV\u9dbc
(lp1528
I1
asV\u9cf7
(lp1529
I1
asV\u9f76
(lp1530
I1
asV\u96fb
(lp1531
I1
asV\u547c
(lp1532
I4
asV\u937e
(lp1533
I2
aI1
asV\u6f01
(lp1534
I1
asV\u8a03
(lp1535
I1
asV\u8407
(lp1536
I1
asV\u8070
(lp1537
I1
asV\u7e0b
(lp1538
I1
asV\u618a
(lp1539
I1
asV\u7d0d
(lp1540
I1
asV\u5343
(lp1541
I6
asV\u380f
(lp1542
I1
asV\u9b8e
(lp1543
I1
asV\u5690
(lp1544
I1
asV\u9592
(lp1545
I1
asV\u5115
(lp1546
I1
asV\u64ef
(lp1547
I1
asV\u4f96
(lp1548
I1
asV\u8b19
(lp1549
I1
asV\u8a98
(lp1550
I1
asV\u651d
(lp1551
I1
asV\u986c
(lp1552
I1
asV\u7da2
(lp1553
I1
asV\u5925
(lp1554
I2
aI1
asV\u9427
(lp1555
I1
asV\u97a6
(lp1556
I1
asV\u9329
(lp1557
I1
asV\u92a8
(lp1558
I1
asV\u51aa
(lp1559
I1
asV\u8cac
(lp1560
I1
asV\u6bae
(lp1561
I1
asV\u8abc
(lp1562
I1
asV\u9c37
(lp1563
I1
asV\u763b
(lp1564
I1
asV\u54bc
(lp1565
I1
asV\u6f41
(lp1566
I1
asV\u8ec0
(lp1567
I1
asV\u88ca
(lp1568
I1
asV\u68c4
(lp1569
I1
asV\u9d42
(lp1570
I1
asV\u9376
(lp1571
I1
asV\u584f
(lp1572
I1
asV\u95d2
(lp1573
I1
asV\u5678
(lp1574
I1
asV\u8b59
(lp1575
I1
asV\u865b
(lp1576
I1
asV\u9f61
(lp1577
I1
asV\u5ee0
(lp1578
I1
asV\u9369
(lp1579
I1
asV\u92e8
(lp1580
I1
asV\u8cec
(lp1581
I1
asV\u6771
(lp1582
I1
asV\u8cd2
(lp1583
I1
asV\u9c77
(lp1584
I1
asV\u9dc4
(lp1585
I1
asV\u73fe
(lp1586
I1
asV\u6c02
(lp1587
I1
asV\u8606
(lp1588
I1
asV\u4308
(lp1589
I1
asV\u7f8b
(lp1590
I1
asV\u798f
(lp1591
I3
aI2
asV\u9a0e
(lp1592
I3
aI2
aI1
asV\u5412
(lp1593
I1
asV\u5114
(lp1594
I1
asV\U00026a99
(lp1595
I1
asV\u4b18
(lp1596
I1
asV\u649d
(lp1597
I1
asV\u651c
(lp1598
I3
aI1
asV\u5f20
(lp1599
I3
asV\u9ba3
(lp1600
I1
asV\u6192
(lp1601
I1
asV\u92a9
(lp1602
I1
asV\u9328
(lp1603
I1
asV\u4d2c
(lp1604
I1
asV\u89af
(lp1605
I1
asV\u7632
(lp1606
I1
asV\u60b5
(lp1607
I1
asV\u6134
(lp1608
I1
asV\u5e36
(lp1609
I3
aI2
aI1
asV\u9beb
(lp1610
I1
asV\u5b38
(lp1611
I1
asV\u6ade
(lp1612
I1
asV\u74bd
(lp1613
I1
asV\u923e
(lp1614
I1
asV\u8f40
(lp1615
I1
asV\u6c42
(lp1616
I3
aI2
asV\u7dba
(lp1617
I1
asV\u8646
(lp1618
I1
asV\u62c9
(lp1619
I3
aI2
asV\u58b0
(lp1620
I1
asV\u7a4e
(lp1621
I1
asV\u56d1
(lp1622
I1
asV\u5750
(lp1623
I3
aI2
asV\u7452
(lp1624
I1
asV\u50d5
(lp1625
I1
asV\u9938
(lp1626
I1
asV\u8b58
(lp1627
I1
asV\u885a
(lp1628
I1
asV\u81df
(lp1629
I1
asV\u5ee1
(lp1630
I1
asV\u9f60
(lp1631
I1
asV\u5c62
(lp1632
I1
asV\u98e5
(lp1633
I1
asV\u5666
(lp1634
I1
asV\u92e9
(lp1635
I1
asV\u7368
(lp1636
I3
aI2
aI1
asV\u8feb
(lp1637
I2
asV\u8ced
(lp1638
I1
asV\u8d6c
(lp1639
I1
asV\u8a6e
(lp1640
I1
asV\u9be8
(lp1641
I1
asV\u5b78
(lp1642
I3
aI2
aI1
asV\u97fb
(lp1643
I1
asV\U0002987a
(lp1644
I1
asV\u6cc1
(lp1645
I1
asV\u7bc0
(lp1646
I2
aI1
asV\u8805
(lp1647
I1
asV\u8209
(lp1648
I1
asV\u9eab
(lp1649
I1
asV\u8396
(lp1650
I1
asV\u7c0d
(lp1651
I1
asV\u7d8c
(lp1652
I1
asV\u990f
(lp1653
I1
asV\u7015
(lp1654
I1
asV\u8d17
(lp1655
I1
asV\u6e96
(lp1656
I1
asV\u6a19
(lp1657
I3
aI1
asV\u6b98
(lp1658
I1
asV\u671b
(lp1659
I3
aI2
asV\u611f
(lp1660
I2
asV\u5fa0
(lp1661
I1
asV\u56a6
(lp1662
I1
asV\u6f2b
(lp1663
I3
aI2
asV\u6aae
(lp1664
I1
asV\u64b2
(lp1665
I1
asV\u9d37
(lp1666
I1
asV\u9148
(lp1667
I1
asV\u9bb8
(lp1668
I1
asV\u98ba
(lp1669
I1
asV\u95bc
(lp1670
I1
asV\u4b43
(lp1671
I1
asV\u8cc2
(lp1672
I1
asV\u66c6
(lp1673
I1
asV\u9f4b
(lp1674
I1
asV\u5c4d
(lp1675
I1
asV\u5f4c
(lp1676
I1
asV\U000297d0
(lp1677
I1
asV\u5353
(lp1678
I2
asV\u9055
(lp1679
I1
asV\u91d4
(lp1680
I1
asV\u615f
(lp1681
I1
asV\u7e61
(lp1682
I1
asV\u9865
(lp1683
I1
asV\u93e8
(lp1684
I1
asV\u896f
(lp1685
I1
asV\u8aee
(lp1686
I1
asV\u64f2
(lp1687
I1
asV\u8075
(lp1688
I1
asV\u67ef
(lp1689
I3
asV\u9d77
(lp1690
I1
asV\u9ef6
(lp1691
I1
asV\u58fa
(lp1692
I1
asV\u947d
(lp1693
I1
asV\u5354
(lp1694
I1
asV\u5000
(lp1695
I1
asV\u4bc0
(lp1696
I1
asV\u9302
(lp1697
I1
asV\u7906
(lp1698
I1
asV\u7d89
(lp1699
I1
asV\u5c08
(lp1700
I2
aI1
asV\u8810
(lp1701
I1
asV\u8c93
(lp1702
I1
asV\u6b12
(lp1703
I1
asV\u9116
(lp1704
I1
asV\u7f85
(lp1705
I1
asV\u9b9d
(lp1706
I1
asV\u7a1c
(lp1707
I1
asV\u5dd6
(lp1708
I1
asV\u9d1e
(lp1709
I1
asV\u64a3
(lp1710
I1
asV\u6efb
(lp1711
I1
asV\u8f2a
(lp1712
I1
asV\u93ad
(lp1713
I1
asV\u5e33
(lp1714
I1
asV\u775c
(lp1715
I1
asV\u79b1
(lp1716
I1
asV\u9830
(lp1717
I1
asV\u69b2
(lp1718
I1
asV\u5fb5
(lp1719
I1
asV\u7e34
(lp1720
I1
asV\u42b7
(lp1721
I1
asV\u8e7a
(lp1722
I1
asV\u91c1
(lp1723
I1
asV\u8ce1
(lp1724
I1
asV\u9644
(lp1725
I3
aI2
asV\u7ac7
(lp1726
I1
asV\u9c48
(lp1727
I1
asV\u9f4a
(lp1728
I1
asV\u66cf
(lp1729
I1
asV\u854e
(lp1730
I1
asV\u8cd3
(lp1731
I2
aI1
asV\u6fd5
(lp1732
I1
asV\u72d7
(lp1733
I2
asV\u76b8
(lp1734
I1
asV\u75d9
(lp1735
I1
asV\u98db
(lp1736
I1
asV\u975a
(lp1737
I1
asV\u9bdd
(lp1738
I1
asV\u3a5c
(lp1739
I1
asV\u5edf
(lp1740
I1
asV\u7d5e
(lp1741
I1
asV\u6ae7
(lp1742
I1
asV\u6de9
(lp1743
I1
asV\u92f8
(lp1744
I1
asV\u926c
(lp1745
I1
asV\u76ef
(lp1746
I3
aI2
asV\u78bc
(lp1747
I1
asV\u99f1
(lp1748
I1
asV\u9870
(lp1749
I1
asV\u9cf3
(lp1750
I1
asV\u6176
(lp1751
I1
asV\u85f9
(lp1752
I1
asV\u8a7c
(lp1753
I1
asV\u6eff
(lp1754
I5
aI4
aI1
asV\u9341
(lp1755
I1
asV\u5403
(lp1756
I4
aI3
aI2
asV\u9382
(lp1757
I1
asV\u96db
(lp1758
I1
asV\u7d09
(lp1759
I1
asV\u8b92
(lp1760
I1
asV\u8f15
(lp1761
I1
asV\u4e94
(lp1762
I3
asV\u5217
(lp1763
I5
aI2
asV\u9196
(lp1764
I1
asV\u7e1f
(lp1765
I1
asV\u7d9e
(lp1766
I1
asV\u60a0
(lp1767
I3
aI2
asV\u83a2
(lp1768
I1
asV\u69a6
(lp1769
I1
asV\u6d29
(lp1770
I1
asV\u8ca8
(lp1771
I1
asV\u502b
(lp1772
I1
asV\u532d
(lp1773
I1
asV\u92ac
(lp1774
I1
asV\u562f
(lp1775
I1
asV\u55ae
(lp1776
I2
aI1
asV\u7931
(lp1777
I1
asV\u98b0
(lp1778
I1
asV\u9c33
(lp1779
I1
asV\u5672
(lp1780
I1
asV\u5f35
(lp1781
I3
aI1
asV\u9eb4
(lp1782
I2
aI1
asV\u61b6
(lp1783
I1
asV\u883b
(lp1784
I1
asV\u6b3d
(lp1785
I1
asV\u924b
(lp1786
I1
asV\u9dca
(lp1787
I1
asV\U000299c6
(lp1788
I1
asV\u8c76
(lp1789
I1
asV\u85ce
(lp1790
I1
asV\u7562
(lp1791
I1
asV\u8ed4
(lp1792
I1
asV\u5257
(lp1793
I1
asV\u7559
(lp1794
I3
aI2
asV\u985b
(lp1795
I1
asV\u77da
(lp1796
I1
asV\u5e5f
(lp1797
I1
asV\u7dde
(lp1798
I1
asV\u8161
(lp1799
I1
asV\u98c6
(lp1800
I1
asV\u566f
(lp1801
I1
asV\u7c73
(lp1802
I4
asV\u7f75
(lp1803
I3
aI2
aI1
asV\u9ef4
(lp1804
I1
asV\u8277
(lp1805
I1
asV\u61f6
(lp1806
I1
asV\u8b7d
(lp1807
I1
asV\u8afc
(lp1808
I1
asV\u9081
(lp1809
I1
asV\u5100
(lp1810
I1
asV\u9583
(lp1811
I1
asV\u7b87
(lp1812
I1
asV\u9806
(lp1813
I3
aI2
aI1
asV\u7d08
(lp1814
I1
asV\u7e0a
(lp1815
I1
asV\u8e82
(lp1816
I1
asV\u8e95
(lp1817
I1
asV\u6f14
(lp1818
I3
aI2
asV\u5016
(lp1819
I1
asV\u7518
(lp1820
I3
asV\u7c1e
(lp1821
I1
asV\u91b1
(lp1822
I1
asV\u8ca9
(lp1823
I1
asV\u91ab
(lp1824
I1
asV\U000297af
(lp1825
I1
asV\u942e
(lp1826
I1
asV\u98b1
(lp1827
I1
asV\u5009
(lp1828
I1
asV\u7db3
(lp1829
I1
asV\u9eb5
(lp1830
I1
asV\u9f34
(lp1831
I1
asV\u500b
(lp1832
I1
asV\U000217b5
(lp1833
I1
asV\u863a
(lp1834
I1
asV\u4c3e
(lp1835
I1
asV\u9e1e
(lp1836
I1
asV\u95c3
(lp1837
I1
asV\u96c5
(lp1838
I3
aI2
asV\u9744
(lp1839
I1
asV\u9bc7
(lp1840
I1
asV\u9846
(lp1841
I3
aI1
asV\u9aaf
(lp1842
I1
asV\u9db9
(lp1843
I1
asV\u8a52
(lp1844
I1
asV\u6f54
(lp1845
I1
asV\u53d7
(lp1846
I3
aI2
asV\u99db
(lp1847
I1
asV\u565a
(lp1848
I1
asV\u60e1
(lp1849
I1
asV\u65e3
(lp1850
I1
asV\u9d07
(lp1851
I1
asV\u92ed
(lp1852
I1
asV\u936c
(lp1853
I1
asV\u77ef
(lp1854
I1
asV\u98f1
(lp1855
I1
asV\u9df3
(lp1856
I1
asV\u8076
(lp1857
I1
asV\u571e
(lp1858
I1
asV\u6578
(lp1859
I3
aI2
aI1
asV\u8ae7
(lp1860
I1
asV\u5180
(lp1861
I3
aI2
asV\u6dea
(lp1862
I1
asV\u4f54
(lp1863
I1
asV\u9c09
(lp1864
I1
asV\u7d88
(lp1865
I1
asV\u7e8a
(lp1866
I1
asV\u8811
(lp1867
I1
asV\u8d13
(lp1868
I1
asV\u8a92
(lp1869
I1
asV\u646f
(lp1870
I1
asV\u5096
(lp1871
I1
asV\u9419
(lp1872
I1
asV\u9598
(lp1873
I1
asV\u991b
(lp1874
I1
asV\u769a
(lp1875
I1
asV\u9a1d
(lp1876
I1
asV\u9b9c
(lp1877
I1
asV\u81a0
(lp1878
I3
aI2
aI1
asV\u8523
(lp1879
I1
asV\u8da8
(lp1880
I1
asV\u8eaa
(lp1881
I1
asV\u722d
(lp1882
I3
aI2
aI1
asV\u93ac
(lp1883
I1
asV\u5831
(lp1884
I1
asV\u79b0
(lp1885
I1
asV\u7d33
(lp1886
I1
asV\u7e35
(lp1887
I1
asV\u60b6
(lp1888
I1
asV\u893b
(lp1889
I1
asV\u6bbc
(lp1890
I1
asV\u6f3f
(lp1891
I1
asV\u9cf4
(lp1892
I1
asV\u91c0
(lp1893
I3
aI2
aI1
asV\u9077
(lp1894
I1
asV\u5da0
(lp1895
I1
asV\u9c49
(lp1896
I1
asV\u9dc8
(lp1897
I1
asV\u614b
(lp1898
I1
asV\u9a4c
(lp1899
I1
asV\u8ad2
(lp1900
I1
asV\u8e55
(lp1901
I1
asV\u4fd4
(lp1902
I1
asV\u5357
(lp1903
I2
asV\u9470
(lp1904
I1
asV\u9f5f
(lp1905
I1
asV\u7cde
(lp1906
I1
asV\u81e0
(lp1907
I1
asV\u6563
(lp1908
I2
asV\U000282e2
(lp1909
I1
asV\u6de8
(lp1910
I1
asV\u516b
(lp1911
I4
aI3
asV\u926d
(lp1912
I1
asV\u58fc
(lp1913
I1
asV\u9871
(lp1914
I1
asV\u99f0
(lp1915
I1
asV\U00027d73
(lp1916
I1
asV\u9e75
(lp1917
I1
asV\u86fa
(lp1918
I1
asV\u6f7f
(lp1919
I1
asV\u8cfe
(lp1920
I1
asV\u9200
(lp1921
I1
asV\u5102
(lp1922
I1
asV\u9b06
(lp1923
I1
asV\u7e08
(lp1924
I1
asV\u648f
(lp1925
I1
asV\u8a10
(lp1926
I1
asV\u8e93
(lp1927
I1
asV\u8d95
(lp1928
I3
aI2
aI1
asV\u9428
(lp1929
I1
asV\U000298b8
(lp1930
I1
asV\u751a
(lp1931
I2
asV\u599d
(lp1932
I1
asV\u981c
(lp1933
I1
asV\u63a1
(lp1934
I1
asV\u65a5
(lp1935
I3
aI2
asV\u6fa9
(lp1936
I1
asV\u92ab
(lp1937
I1
asV\u9a30
(lp1938
I1
asV\u9eb3
(lp1939
I1
asV\U00029932
(lp1940
I1
asV\u7db5
(lp1941
I1
asV\u8638
(lp1942
I3
aI2
asV\u6abb
(lp1943
I1
asV\u89bd
(lp1944
I1
asV\u683c
(lp1945
I4
asV\u6cbf
(lp1946
I3
aI2
asV\u8f3e
(lp1947
I1
asV\u9240
(lp1948
I1
asV\u76c3
(lp1949
I1
asV\u55c5
(lp1950
I3
aI2
asV\u9444
(lp1951
I1
asV\u58c7
(lp1952
I1
asV\u7b46
(lp1953
I1
asV\u62cb
(lp1954
I1
asV\u7be4
(lp1955
I1
asV\u81cd
(lp1956
I1
asV\u674e
(lp1957
I3
asV\U00021839
(lp1958
I1
asV\u8c54
(lp1959
I1
asV\u97d9
(lp1960
I1
asV\u9658
(lp1961
I1
asV\u99dd
(lp1962
I1
asV\u785c
(lp1963
I1
asV\u5f5e
(lp1964
I1
asV\u85e5
(lp1965
I1
asV\u8464
(lp1966
I1
asV\u68e7
(lp1967
I1
asV\u71ed
(lp1968
I1
asV\u9bf1
(lp1969
I1
asV\u5ef3
(lp1970
I1
asV\u6afb
(lp1971
I1
asV\u98eb
(lp1972
I1
asV\u701f
(lp1973
I1
asV\u9301
(lp1974
I1
asV\u9280
(lp1975
I2
aI1
asV\u9807
(lp1976
I1
asV\u9f09
(lp1977
I1
asV\u7e88
(lp1978
I1
asV\u9d8a
(lp1979
I1
asV\u9396
(lp1980
I2
aI1
asV\u5a1b
(lp1981
I1
asV\u559a
(lp1982
I1
asV\u589c
(lp1983
I1
asV\u9c1f
(lp1984
I1
asV\u5f9e
(lp1985
I1
asV\u9d5d
(lp1986
I1
asV\u8525
(lp1987
I1
asV\u8f64
(lp1988
I1
asV\u8f29
(lp1989
I1
asV\u912d
(lp1990
I1
asV\u942f
(lp1991
I1
asV\u991c
(lp1992
I1
asV\u9b31
(lp1993
I2
aI1
asV\u7e33
(lp1994
I1
asV\u7d35
(lp1995
I1
asV\u71c8
(lp1996
I1
asV\u8a3b
(lp1997
I1
asV\u85ba
(lp1998
I1
asV\u6fbe
(lp1999
I1
asV\u5341
(lp2000
I4
aI3
asV\u72c0
(lp2001
I1
asV\u9bc6
(lp2002
I1
asV\u5ec8
(lp2003
I1
asV\u7dca
(lp2004
I1
asV\u614d
(lp2005
I1
asV\u80cc
(lp2006
I3
aI2
asV\u87ce
(lp2007
I1
asV\u7df9
(lp2008
I1
asV\u736b
(lp2009
I1
asV\u9a5b
(lp2010
I1
asV\u55da
(lp2011
I1
asV\u58dc
(lp2012
I1
asV\u7c5f
(lp2013
I1
asV\u8667
(lp2014
I1
asV\u81e2
(lp2015
I1
asV\u8ee8
(lp2016
I1
asV\u8dea
(lp2017
I3
aI2
asV\u516d
(lp2018
I4
aI3
asV\u5e73
(lp2019
I4
aI2
asV\u7cf4
(lp2020
I1
asV\u8077
(lp2021
I1
asV\u66f8
(lp2022
I1
asV\u85fa
(lp2023
I1
asV\u6ffe
(lp2024
I1
asV\u91cd
(lp2025
I2
asV\u5504
(lp2026
I1
asV\u9bc4
(lp2027
I1
asV\u8a91
(lp2028
I1
asV\u8b10
(lp2029
I1
asV\u8d14
(lp2030
I1
asV\u7197
(lp2031
I1
asV\u5699
(lp2032
I1
asV\u5718
(lp2033
I1
asV\u762e
(lp2034
I1
asV\u591c
(lp2035
I2
asV\u7e1e
(lp2036
I1
asV\u64a5
(lp2037
I1
asV\u6524
(lp2038
I1
asV\u965d
(lp2039
I1
asV\u50ad
(lp2040
I1
asV\u5854
(lp2041
I3
asV\u562e
(lp2042
I1
asV\u5b30
(lp2043
I1
asV\u96e3
(lp2044
I1
asV\u9832
(lp2045
I1
asV\u7cb5
(lp2046
I1
asV\u9d34
(lp2047
I1
asV\u6236
(lp2048
I1
asV\u6bbb
(lp2049
I1
asV\u6e3e
(lp2050
I1
asV\u92c1
(lp2051
I1
asV\u5340
(lp2052
I3
aI1
asV\u97c3
(lp2053
I1
asV\u7f48
(lp2054
I1
asV\U0002a0cd
(lp2055
I1
asV\u85cf
(lp2056
I3
aI2
asV\u8ad1
(lp2057
I1
asV\u6b50
(lp2058
I1
asV\u8cd5
(lp2059
I1
asV\u91d7
(lp2060
I1
asV\u96d9
(lp2061
I1
asV\u9bdb
(lp2062
I1
asV\u995c
(lp2063
I1
asV\u7e5e
(lp2064
I3
aI2
aI1
asV\u87e3
(lp2065
I1
asV\u743a
(lp2066
I1
asV\u69e7
(lp2067
I1
asV\u8a66
(lp2068
I3
aI2
aI1
asV\u53eb
(lp2069
I3
aI2
asV\u90ed
(lp2070
I3
asV\u716c
(lp2071
I1
asV\u766e
(lp2072
I1
asV\u9dbf
(lp2073
I1
asV\u61f7
(lp2074
I3
aI2
aI1
asV\u61e8
(lp2075
I1
asV\u8778
(lp2076
I1
asV\u647a
(lp2077
I1
asV\u88fd
(lp2078
I1
asV\u901f
(lp2079
I3
asV\u4e7e
(lp2080
I4
aI3
aI2
aI1
asV\u9201
(lp2081
I1
asV\u52c1
(lp2082
I1
asV\u9340
(lp2083
I1
asV\u7e09
(lp2084
I1
asV\u7f88
(lp2085
I1
asV\u650f
(lp2086
I1
asV\u8a11
(lp2087
I1
asV\u7d19
(lp2088
I1
asV\u8f13
(lp2089
I1
asV\u8b78
(lp2090
I1
asV\u7296
(lp2091
I1
asV\u7798
(lp2092
I1
asV\u581d
(lp2093
I1
asV\u9d1f
(lp2094
I1
asV\u8aa6
(lp2095
I1
asV\u8e29
(lp2096
I3
aI2
asV\u932b
(lp2097
I1
asV\u8caa
(lp2098
I1
asV\u91ac
(lp2099
I1
asV\u752f
(lp2100
I1
asV\u56ae
(lp2101
I1
asV\u7a31
(lp2102
I1
asV\u9bb0
(lp2103
I1
asV\u5f33
(lp2104
I1
asV\u96f2
(lp2105
I1
asV\u9c35
(lp2106
I1
asV\u9db4
(lp2107
I1
asV\u6137
(lp2108
I1
asV\u5f48
(lp2109
I1
asV\u89bc
(lp2110
I1
asV\u9241
(lp2111
I1
asV\u50c2
(lp2112
I1
asV\u9f77
(lp2113
I1
asV\U00029947
(lp2114
I1
asV\u7232
(lp2115
I1
asV\u7cf6
(lp2116
I1
asV\u61cc
(lp2117
I1
asV\u5157
(lp2118
I1
asV\U000298be
(lp2119
I1
asV\u9b5b
(lp2120
I1
asV\u74da
(lp2121
I1
asV\u529a
(lp2122
I1
asV\u9ede
(lp2123
I3
aI2
aI1
asV\u7de8
(lp2124
I2
aI1
asV\u8ae6
(lp2125
I1
asV\u9c0d
(lp2126
I1
asV\u8cea
(lp2127
I1
asV\u71ec
(lp2128
I1
asV\u9bf0
(lp2129
I2
aI1
asV\u5852
(lp2130
I1
asV\u7df4
(lp2131
I1
asV\u7e73
(lp2132
I1
asV\u64fa
(lp2133
I3
aI2
aI1
asV\u6207
(lp2134
I1
asV\u8efe
(lp2135
I1
asV\u9204
(lp2136
I1
asV\u5e87
(lp2137
I3
asV\u9d06
(lp2138
I1
asV\u9808
(lp2139
I1
asV\u8c10
(lp2140
I2
asV\u8f12
(lp2141
I1
asV\u8b95
(lp2142
I1
asV\u7018
(lp2143
I1
asV\u931a
(lp2144
I1
asV\u9949
(lp2145
I1
asV\u991e
(lp2146
I1
asV\u63a5
(lp2147
I3
aI2
asV\u89aa
(lp2148
I1
asV\u8828
(lp2149
I1
asV\u74ab
(lp2150
I1
asV\u77ad
(lp2151
I2
aI1
asV\u9433
(lp2152
I1
asV\u72af
(lp2153
I3
asV\u9c64
(lp2154
I1
asV\u7db1
(lp2155
I1
asV\u58b3
(lp2156
I1
asV\u93b2
(lp2157
I1
asV\u8cbb
(lp2158
I1
asV\u8abf
(lp2159
I5
aI1
asV\u96b4
(lp2160
I1
asV\u9742
(lp2161
I1
asV\u5244
(lp2162
I1
asV\u7d46
(lp2163
I1
asV\u84cb
(lp2164
I3
aI1
asV\u814e
(lp2165
I1
asV\u8dd1
(lp2166
I3
aI2
asV\u8c50
(lp2167
I1
asV\u8a54
(lp2168
I1
asV\u71d9
(lp2169
I1
asV\u7058
(lp2170
I1
asV\u935a
(lp2171
I1
asV\u995e
(lp2172
I1
asV\u8264
(lp2173
I1
asV\u5a66
(lp2174
I1
asV\u77ed
(lp2175
I2
asV\u766c
(lp2176
I1
asV\u92ef
(lp2177
I1
asV\u7df1
(lp2178
I1
asV\u9f72
(lp2179
I1
asV\u5bf5
(lp2180
I1
asV\u7e79
(lp2181
I1
asV\u6fa6
(lp2182
I1
asV\u8cfb
(lp2183
I1
asV\u8ffd
(lp2184
I3
aI2
asV\u9e07
(lp2185
I1
asV\u7d86
(lp2186
I1
asV\u9909
(lp2187
I1
asV\u9b8a
(lp2188
I1
asV\u516c
(lp2189
I4
aI2
asV\u7192
(lp2190
I1
asV\u6a94
(lp2191
I1
asV\u5617
(lp2192
I1
asV\u5098
(lp2193
I1
asV\u939a
(lp2194
I1
asV\u7e9c
(lp2195
I1
asV\u9a1f
(lp2196
I1
asV\u5ec4
(lp2197
I1
asV\u6af1
(lp2198
I1
asV\u591a
(lp2199
I4
asV\u7247
(lp2200
I2
asV\u9580
(lp2201
I1
asV\u542b
(lp2202
I3
aI2
asV\u922f
(lp2203
I1
asV\u7d31
(lp2204
I1
asV\u8139
(lp2205
I1
asV\u5c6c
(lp2206
I1
asV\u7043
(lp2207
I1
asV\u7345
(lp2208
I1
asV\U00029949
(lp2209
I1
asV\u58c8
(lp2210
I1
asV\u9bca
(lp2211
I1
asV\u6aa3
(lp2212
I1
asV\u4f5b
(lp2213
I4
asV\u8853
(lp2214
I1
asV\u5d22
(lp2215
I1
asV\u95d6
(lp2216
I1
asV\u7159
(lp2217
I1
asV\u6a3a
(lp2218
I1
asV\u93da
(lp2219
I1
asV\u9a5f
(lp2220
I1
asV\u723e
(lp2221
I1
asV\u98e3
(lp2222
I1
asV\u6e67
(lp2223
I1
asV\u78fd
(lp2224
I1
asV\u7d71
(lp2225
I1
asV\u7cf0
(lp2226
I1
asV\u9873
(lp2227
I1
asV\u85f6
(lp2228
I1
asV\u5e7e
(lp2229
I5
aI1
asV\u6eab
(lp2230
I3
aI1
asV\u8a7f
(lp2231
I1
asV\u9481
(lp2232
I1
asV\u7602
(lp2233
I1
asV\u9285
(lp2234
I1
asV\u9304
(lp2235
I1
asV\u9c06
(lp2236
I1
asV\u8d10
(lp2237
I1
asV\u8993
(lp2238
I1
asV\u8a95
(lp2239
I1
asV\u8b14
(lp2240
I1
asV\u5099
(lp2241
I3
aI2
aI1
asV\u5118
(lp2242
I1
asV\u9b9f
(lp2243
I1
asV\u9370
(lp2244
I1
asV\u8622
(lp2245
I1
asV\u55ab
(lp2246
I1
asV\u8a2a
(lp2247
I1
asV\u93af
(lp2248
I1
asV\u9d30
(lp2249
I1
asV\u99b3
(lp2250
I1
asV\u7e32
(lp2251
I1
asV\u7ab5
(lp2252
I1
asV\u6436
(lp2253
I1
asV\u91c3
(lp2254
I1
asV\u7642
(lp2255
I1
asV\u92c5
(lp2256
I1
asV\u7344
(lp2257
I1
asV\u98e0
(lp2258
I1
asV\u5948
(lp2259
I4
asV\u65cb
(lp2260
I4
asV\u9a4a
(lp2261
I1
asV\u8cd1
(lp2262
I1
asV\u69d3
(lp2263
I1
asV\u9be2
(lp2264
I1
asV\u925a
(lp2265
I1
asV\u5edd
(lp2266
I1
asV\u9f5c
(lp2267
I1
asV\u985e
(lp2268
I1
asV\u6a11
(lp2269
I1
asV\u61e3
(lp2270
I1
asV\u6968
(lp2271
I1
asV\u53ef
(lp2272
I3
asV\u7d70
(lp2273
I1
asV\u5af5
(lp2274
I1
asV\u7b74
(lp2275
I1
asV\u6476
(lp2276
I1
asV\u8178
(lp2277
I1
asV\u6bff
(lp2278
I1
asV\u6fc1
(lp2279
I1
asV\u5384
(lp2280
I4
aI3
asV\u5e40
(lp2281
I1
asV\u9296
(lp2282
I1
asV\u8e92
(lp2283
I1
asV\u8a15
(lp2284
I1
asV\u9019
(lp2285
I1
asV\u9d1b
(lp2286
I1
asV\u929a
(lp2287
I1
asV\u9e1d
(lp2288
I1
asV\u9f9c
(lp2289
I1
asV\u8123
(lp2290
I1
asV\u66a2
(lp2291
I1
asV\u8aaa
(lp2292
I1
asV\u3473
(lp2293
I1
asV\u532f
(lp2294
I3
aI1
asV\u9c31
(lp2295
I1
asV\U00029db0
(lp2296
I1
asV\u9933
(lp2297
I1
asV\u9eb2
(lp2298
I1
asV\u6d3b
(lp2299
I3
aI2
asV\u4ecb
(lp2300
I2
asV\U000295c0
(lp2301
I1
asV\u56c2
(lp2302
I1
asV\u9245
(lp2303
I2
aI1
asV\u53c4
(lp2304
I1
asV\U00029f47
(lp2305
I1
asV\u79c8
(lp2306
I1
asV\u7aca
(lp2307
I1
asV\u7d79
(lp2308
I1
asV\u6953
(lp2309
I1
asV\u8ed2
(lp2310
I1
asV\u8a55
(lp2311
I1
asV\u9059
(lp2312
I1
asV\u91d8
(lp2313
I1
asV\u7d5b
(lp2314
I1
asV\u8b4e
(lp2315
I1
asV\u9b5f
(lp2316
I1
asV\u58de
(lp2317
I1
asV\u6163
(lp2318
I3
aI2
aI1
asV\u8ce6
(lp2319
I1
asV\u69e8
(lp2320
I1
asV\u756b
(lp2321
I1
asV\u6aea
(lp2322
I1
asV\u766d
(lp2323
I1
asV\u5df0
(lp2324
I1
asV\u9ef2
(lp2325
I1
asV\u9bf4
(lp2326
I1
asV\u8079
(lp2327
I1
asV\u61f8
(lp2328
I1
asV\u6ffc
(lp2329
I1
asV\u4b7f
(lp2330
I1
asV\U00029600
(lp2331
I1
asV\u5283
(lp2332
I1
asV\u7185
(lp2333
I1
asV\u5b89
(lp2334
I7
asV\u7a08
(lp2335
I1
asV\U0002990a
(lp2336
I1
asV\u8e10
(lp2337
I1
asV\u8a02
(lp2338
I1
asV\u5716
(lp2339
I1
asV\u5399
(lp2340
I1
asV\u9c1c
(lp2341
I1
asV\u789f
(lp2342
I2
asV\u6620
(lp2343
I3
aI2
asV\u6522
(lp2344
I1
asV\u8ca7
(lp2345
I1
asV\u8f26
(lp2346
I1
asV\u5006
(lp2347
I1
asV\u95ad
(lp2348
I1
asV\u50af
(lp2349
I1
asV\u932e
(lp2350
I1
asV\u9d32
(lp2351
I1
asV\u9834
(lp2352
I1
asV\u8b3e
(lp2353
I1
asV\u97c1
(lp2354
I1
asV\u92c3
(lp2355
I1
asV\u91c5
(lp2356
I1
asV\u7044
(lp2357
I1
asV\u5f46
(lp2358
I1
asV\u9bc9
(lp2359
I1
asV\u994a
(lp2360
I1
asV\u85cd
(lp2361
I1
asV\U0002a0cf
(lp2362
I1
asV\u8fd1
(lp2363
I4
asV\u6ad3
(lp2364
I1
asV\u7d62
(lp2365
I1
asV\u7258
(lp2366
I1
asV\u9edb
(lp2367
I3
asV\u7ddd
(lp2368
I1
asV\u5c5c
(lp2369
I1
asV\u58df
(lp2370
I1
asV\u7864
(lp2371
I1
asV\u8562
(lp2372
I1
asV\u81e5
(lp2373
I1
asV\u8ce7
(lp2374
I1
asV\u896a
(lp2375
I1
asV\u736e
(lp2376
I1
asV\u7e70
(lp2377
I1
asV\u5d87
(lp2378
I1
asV\u7d72
(lp2379
I1
asV\u9d3f
(lp2380
I1
asV\u64f7
(lp2381
I1
asV\u9695
(lp2382
I1
asV\u8efb
(lp2383
I1
asV\u8b7e
(lp2384
I1
asV\u5680
(lp2385
I1
asV\u9203
(lp2386
I1
asV\u9582
(lp2387
I1
asV\u9084
(lp2388
I1
asV\u5c07
(lp2389
I4
aI1
asV\u7f86
(lp2390
I1
asV\u860b
(lp2391
I1
asV\u8c6c
(lp2392
I1
asV\u8c99
(lp2393
I1
asV\u6a13
(lp2394
I1
asV\u58ef
(lp2395
I1
asV\u9319
(lp2396
I1
asV\u9298
(lp2397
I1
asV\u5e1b
(lp2398
I2
asV\u9d1d
(lp2399
I1
asV\u9b9e
(lp2400
I1
asV\u8fa6
(lp2401
I3
aI2
aI1
asV\u8aa8
(lp2402
I1
asV\u69aa
(lp2403
I1
asV\u93ae
(lp2404
I1
asV\u7db2
(lp2405
I4
aI2
aI1
asV\u9935
(lp2406
I1
asV\U000298b4
(lp2407
I1
asV\u8cbc
(lp2408
I1
asV\u4bbe
(lp2409
I1
asV\u56c0
(lp2410
I1
asV\u9c47
(lp2411
I1
asV\u7b49
(lp2412
I2
asV\u7ac8
(lp2413
I1
asV\u6f51
(lp2414
I1
asV\u6dd2
(lp2415
I1
asV\u7d5d
(lp2416
I1
asV\u66e0
(lp2417
I4
aI1
asV\u63a7
(lp2418
I3
asV\u8fe6
(lp2419
I2
asV\u6ae8
(lp2420
I1
asV\u947c
(lp2421
I1
asV\u7df2
(lp2422
I1
asV\u98f4
(lp2423
I1
asV\u8477
(lp2424
I1
asV\u87f6
(lp2425
I1
asV\u8e7b
(lp2426
I1
asV\u61fa
(lp2427
I1
asV\u8cfc
(lp2428
I1
asV\u687f
(lp2429
I1
asV\u9dd4
(lp2430
I1
asV\u5104
(lp2431
I1
asV\u9d87
(lp2432
I1
asV\u5b08
(lp2433
I1
asV\u980a
(lp2434
I1
asV\u8e91
(lp2435
I1
asV\u8b93
(lp2436
I1
asV\u5616
(lp2437
I1
asV\u9318
(lp2438
I1
asV\u7d1c
(lp2439
I1
asV\u6e26
(lp2440
I1
asV\u8b28
(lp2441
I1
asV\u91af
(lp2442
I2
aI1
asV\u922e
(lp2443
I1
asV\u9bb3
(lp2444
I1
asV\u9c32
(lp2445
I1
asV\u65b7
(lp2446
I1
asV\u8cbd
(lp2447
I1
asV\u9e0b
(lp2448
I1
asV\u69bf
(lp2449
I1
asV\u56c1
(lp2450
I1
asV\u53c3
(lp2451
I1
asV\U00028ad2
(lp2452
I1
asV\u50c5
(lp2453
I1
asV\u7dc7
(lp2454
I1
asV\u7e46
(lp2455
I1
asV\u5d0d
(lp2456
I1
asV\u584a
(lp2457
I1
asV\u81cf
(lp2458
I1
asV\u624e
(lp2459
I3
aI2
asV\u6ed1
(lp2460
I2
asV\u980f
(lp2461
I1
asV\u92d9
(lp2462
I1
asV\u9358
(lp2463
I1
asV\u505a
(lp2464
I3
aI2
asV\u7cdd
(lp2465
I1
asV\u9d5c
(lp2466
I1
asV\u99df
(lp2467
I1
asV\u6164
(lp2468
I1
asV\U00024ae9
(lp2469
I1
asV\u9a05
(lp2470
I1
asV\u54ed
(lp2471
I3
aI2
asV\u526e
(lp2472
I1
asV\u7f70
(lp2473
I1
asV\u7bf3
(lp2474
I1
asV\u7c72
(lp2475
I1
asV\U000298f5
(lp2476
I1
asV\u6676
(lp2477
I2
asV\u8cfd
(lp2478
I1
asV\u92aa
(lp2479
I1
asV\u9780
(lp2480
I1
asV\u7005
(lp2481
I1
asV\u7d07
(lp2482
I1
asV\u5b88
(lp2483
I3
aI2
asV\u588a
(lp2484
I1
asV\u640d
(lp2485
I1
asV\u858c
(lp2486
I1
asV\u4e11
(lp2487
I3
aI2
asV\u6f90
(lp2488
I1
asV\u6c92
(lp2489
I1
asV\u4a98
(lp2490
I1
asV\u9398
(lp2491
I1
asV\u7d9c
(lp2492
I1
asV\u6025
(lp2493
I3
aI2
asV\u61a4
(lp2494
I1
asV\u8ea6
(lp2495
I1
asV\u8a29
(lp2496
I1
asV\u6ba8
(lp2497
I1
asV\u55ac
(lp2498
I1
asV\u7e31
(lp2499
I1
asV\u7d42
(lp2500
I1
asV\u98f2
(lp2501
I1
asV\u99b4
(lp2502
I1
asV\u8f3b
(lp2503
I1
asV\u6dbc
(lp2504
I3
aI2
aI1
asV\u8abe
(lp2505
I1
asV\u5641
(lp2506
I1
asV\u9343
(lp2507
I1
asV\u6a23
(lp2508
I1
asV\u62ce
(lp2509
I3
aI2
asV\u5da2
(lp2510
I1
asV\u8855
(lp2511
I1
asV\u96d6
(lp2512
I1
asV\u93d8
(lp2513
I1
asV\u9c5d
(lp2514
I1
asV\u649e
(lp2515
I2
asV\u6065
(lp2516
I1
asV\u8a69
(lp2517
I1
asV\u946d
(lp2518
I1
asV\u92ee
(lp2519
I1
asV\u7cf2
(lp2520
I1
asV\u5875
(lp2521
I1
asV\u8577
(lp2522
I1
asV\u51d9
(lp2523
I1
asV\u6efe
(lp2524
I1
asV\u4c7d
(lp2525
I1
asV\u5e2b
(lp2526
I1
asV\u8afe
(lp2527
I2
aI1
asV\u5f85
(lp2528
I3
aI2
asV\u5287
(lp2529
I1
asV\u9106
(lp2530
I1
asV\u9589
(lp2531
I3
aI2
aI1
asV\u5408
(lp2532
I2
asV\u8a0c
(lp2533
I1
asV\u6191
(lp2534
I2
aI1
asV\u6493
(lp2535
I1
asV\u6795
(lp2536
I3
aI2
asV\u9916
(lp2537
I1
asV\u9bae
(lp2538
I1
asV\u939d
(lp2539
I1
asV\u5cf6
(lp2540
I1
asV\u89a1
(lp2541
I1
asV\u76b0
(lp2542
I1
asV\u85a9
(lp2543
I1
asV\u92dd
(lp2544
I1
asV\u9931
(lp2545
I1
asV\u9bad
(lp2546
I1
asV\u9eaf
(lp2547
I3
aI1
asV\u7d2e
(lp2548
I1
asV\u71b1
(lp2549
I1
asV\u7030
(lp2550
I1
asV\u9332
(lp2551
I1
asV\u57b5
(lp2552
I1
asV\u6c38
(lp2553
I2
asV\u4f3a
(lp2554
I3
asV\u99c1
(lp2555
I1
asV\u88e1
(lp2556
I1
asV\u6b0a
(lp2557
I1
asV\u5c37
(lp2558
I1
asV\u92c7
(lp2559
I1
asV\u6bcd
(lp2560
I2
asV\u8ecf
(lp2561
I1
asV\u64d3
(lp2562
I1
asV\u9a62
(lp2563
I1
asV\u5ad7
(lp2564
I1
asV\u7dd9
(lp2565
I1
asV\u9c58
(lp2566
I1
asV\u93dd
(lp2567
I1
asV\u555e
(lp2568
I1
asV\u8ce3
(lp2569
I1
asV\u8e64
(lp2570
I1
asV\u82e7
(lp2571
I2
aI1
asV\u8166
(lp2572
I1
asV\u58eb
(lp2573
I4
asV\u84bc
(lp2574
I1
asV\u51f1
(lp2575
I1
asV\u7372
(lp2576
I3
aI2
aI1
asV\u5674
(lp2577
I1
asV\u8af7
(lp2578
I1
asV\u60fb
(lp2579
I1
asV\u9c03
(lp2580
I1
asV\u9207
(lp2581
I1
asV\u8a8c
(lp2582
I1
asV\u8e0f
(lp2583
I3
aI2
asV\u5d19
(lp2584
I1
asV\u9c6e
(lp2585
I1
asV\u929c
(lp2586
I1
asV\u6c23
(lp2587
I1
asV\u8f25
(lp2588
I1
asV\u6227
(lp2589
I1
asV\u5dae
(lp2590
I1
asV\u5433
(lp2591
I3
aI1
asV\u53b2
(lp2592
I1
asV\U00027735
(lp2593
I1
asV\u56b4
(lp2594
I1
asV\u8cb8
(lp2595
I1
asV\u863f
(lp2596
I1
asV\u9941
(lp2597
I1
asV\u98c0
(lp2598
I1
asV\u7c43
(lp2599
I1
asV\u9ec4
(lp2600
I3
asV\u5247
(lp2601
I1
asV\u54c8
(lp2602
I3
asV\u9d6e
(lp2603
I1
asV\u8755
(lp2604
I1
asV\u984f
(lp2605
I1
asV\u9a57
(lp2606
I1
asV\u765f
(lp2607
I1
asV\u95de
(lp2608
I1
asV\u9e7a
(lp2609
I1
asV\u8ee4
(lp2610
I1
asV\u8569
(lp2611
I1
asV\u986b
(lp2612
I1
asV\u7e6f
(lp2613
I1
asV\u9d70
(lp2614
I1
asV\u7171
(lp2615
I1
asV\u5473
(lp2616
I3
aI2
asV\u53f2
(lp2617
I4
asV\u89f6
(lp2618
I1
asV\u6d79
(lp2619
I1
asV\u6ffa
(lp2620
I1
asV\u62fc
(lp2621
I3
aI2
asV\u7d83
(lp2622
I1
asV\u9a02
(lp2623
I1
asV\u9387
(lp2624
I1
asV\u9006
(lp2625
I3
aI2
asV\u7489
(lp2626
I1
asV\u898b
(lp2627
I4
aI3
aI2
aI1
asV\u8a8d
(lp2628
I1
asV\u4f8f
(lp2629
I3
asV\u8212
(lp2630
I3
asV\u7149
(lp2631
I1
asV\u5816
(lp2632
I1
asV\u7d18
(lp2633
I1
asV\u9e1a
(lp2634
I1
asV\u731c
(lp2635
I3
aI2
asV\U00029db1
(lp2636
I1
asV\u8a22
(lp2637
I1
asV\u8ea5
(lp2638
I1
asV\u83a7
(lp2639
I1
asV\U0002a026
(lp2640
I1
asV\u98b3
(lp2641
I1
asV\u9c2e
(lp2642
I1
asV\u9130
(lp2643
I1
asV\u9232
(lp2644
I1
asV\u8836
(lp2645
I1
asV\u7a4d
(lp2646
I2
aI1
asV\u87bf
(lp2647
I1
asV\u78c1
(lp2648
I2
asV\u9a42
(lp2649
I1
asV\u93c7
(lp2650
I1
asV\u69cb
(lp2651
I1
asV\u8acd
(lp2652
I1
asV\u8c4e
(lp2653
I3
aI2
aI1
asV\u9bd7
(lp2654
I1
asV\u7e5a
(lp2655
I1
asV\u52dd
(lp2656
I1
asV\u945e
(lp2657
I1
asV\u68e1
(lp2658
I1
asV\u8960
(lp2659
I1
asV\u8a62
(lp2660
I1
asV\u4ee5
(lp2661
I4
asV\u6f64
(lp2662
I3
aI2
aI1
asV\u9aed
(lp2663
I3
aI2
asV\u7c6e
(lp2664
I1
asV\u50f1
(lp2665
I1
asV\u993e
(lp2666
I1
asV\u7e6b
(lp2667
I1
asV\u9801
(lp2668
I1
asV\u9d03
(lp2669
I1
asV\u9307
(lp2670
I1
asV\u5409
(lp2671
I4
aI3
asV\u9588
(lp2672
I1
asV\u968a
(lp2673
I1
asV\u6190
(lp2674
I1
asV\u786f
(lp2675
I1
asV\u9d98
(lp2676
I1
asV\U00029d98
(lp2677
I1
asV\u811b
(lp2678
I1
asV\u571f
(lp2679
I3
aI2
asV\u6aa2
(lp2680
I1
asV\u6fa4
(lp2681
I1
asV\u792b
(lp2682
I1
asV\u9a2d
(lp2683
I1
asV\u9031
(lp2684
I1
asV\u5635
(lp2685
I1
asV\u8eba
(lp2686
I3
aI2
asV\u64cb
(lp2687
I3
aI2
aI1
asV\u64be
(lp2688
I1
asV\u9d43
(lp2689
I1
asV\u7e45
(lp2690
I1
asV\u9347
(lp2691
I1
asV\u7fa9
(lp2692
I3
aI1
asV\u95c8
(lp2693
I1
asV\u4f4f
(lp2694
I3
aI2
asV\u8553
(lp2695
I1
asV\u8655
(lp2696
I1
asV\u5b57
(lp2697
I4
aI3
aI2
asV\u8af8
(lp2698
I1
asV\u7c59
(lp2699
I1
asV\u7dd8
(lp2700
I1
asV\u5eda
(lp2701
I1
asV\u525d
(lp2702
I1
asV\u93dc
(lp2703
I1
asV\u8ae2
(lp2704
I1
asV\u6fe4
(lp2705
I1
asV\u5a6d
(lp2706
I1
asV\u5bec
(lp2707
I2
aI1
asV\u8ecc
(lp2708
I1
asV\u9f52
(lp2709
I1
asV\u8b77
(lp2710
I3
aI2
aI1
asV\u68f6
(lp2711
I1
asV\u8efa
(lp2712
I1
asV\u64fe
(lp2713
I1
asV\u9b81
(lp2714
I1
asV\u7343
(lp2715
I1
asV\u5c04
(lp2716
I2
asV\u9087
(lp2717
I1
asV\u9306
(lp2718
I1
asV\u91d9
(lp2719
I1
asV\u6595
(lp2720
I1
asV\u4f2f
(lp2721
I3
asV\u9e18
(lp2722
I1
asV\u929b
(lp2723
I1
asV\u7d1a
(lp2724
I1
asV\u7dcb
(lp2725
I1
asV\u771e
(lp2726
I1
asV\u652a
(lp2727
I1
asV\u99ad
(lp2728
I1
asV\u9230
(lp2729
I1
asV\u56b3
(lp2730
I1
asV\u9132
(lp2731
I1
asV\u5434
(lp2732
I3
asV\u6e38
(lp2733
I2
asV\u82bb
(lp2734
I1
asV\u81bd
(lp2735
I1
asV\u64bf
(lp2736
I1
asV\u9bc1
(lp2737
I1
asV\u7a40
(lp2738
I2
aI1
asV\u9ec3
(lp2739
I3
aI1
asV\u9346
(lp2740
I1
asV\u97c9
(lp2741
I1
asV\U00029648
(lp2742
I1
asV\u8acb
(lp2743
I1
asV\u69cd
(lp2744
I1
asV\u884c
(lp2745
I4
aI3
aI2
asV\u4f4e
(lp2746
I3
aI2
asV\u9c39
(lp2747
I1
asV\u4b1d
(lp2748
I1
asV\u7db8
(lp2749
I1
asV\u5fd9
(lp2750
I3
aI2
asV\u5e58
(lp2751
I1
asV\u52db
(lp2752
I1
asV\u9d5a
(lp2753
I1
asV\u91dd
(lp2754
I1
asV\u905c
(lp2755
I1
asV\U0002775e
(lp2756
I1
asV\u8a60
(lp2757
I1
asV\u4ee3
(lp2758
I4
aI3
asV\u4eba
(lp2759
I4
asV\u6de5
(lp2760
I1
asV\u856a
(lp2761
I1
asV\u99ed
(lp2762
I1
asV\u786c
(lp2763
I2
asV\u53f1
(lp2764
I2
asV\u9412
(lp2765
I1
asV\u42fb
(lp2766
I1
asV\u9114
(lp2767
I1
asV\u5e03
(lp2768
I5
aI3
aI2
asV\u7d05
(lp2769
I1
asV\u5d97
(lp2770
I1
asV\u7007
(lp2771
I1
asV\u758a
(lp2772
I1
asV\u9f4e
(lp2773
I1
asV\u6311
(lp2774
I3
aI2
asV\u6613
(lp2775
I4
aI3
asV\u8ac2
(lp2776
I1
asV\u8494
(lp2777
I1
asV\u9817
(lp2778
I1
asV\u7e98
(lp2779
I1
asV\u721b
(lp2780
I1
asV\u9d9a
(lp2781
I1
asV\u779e
(lp2782
I3
aI2
aI1
asV\u8b21
(lp2783
I1
asV\u8aa0
(lp2784
I1
asV\u6027
(lp2785
I3
aI2
asV\u9a2b
(lp2786
I1
asV\u992d
(lp2787
I1
asV\u5331
(lp2788
I1
asV\u9633
(lp2789
I3
asV\u71b2
(lp2790
I1
asV\u5e43
(lp2791
I1
asV\u7d45
(lp2792
I1
asV\u9047
(lp2793
I3
aI2
asV\u93c6
(lp2794
I1
asV\u56c8
(lp2795
I1
asV\u6a4b
(lp2796
I1
asV\u55ca
(lp2797
I1
asV\u8555
(lp2798
I1
asV\u64d4
(lp2799
I1
asV\u5857
(lp2800
I1
asV\u9bd6
(lp2801
I1
asV\u5f59
(lp2802
I1
asV\u525b
(lp2803
I1
asV\u9dda
(lp2804
I1
asV\u97de
(lp2805
I1
asV\u6b61
(lp2806
I1
asV\u8e63
(lp2807
I1
asV\u937a
(lp2808
I1
asV\u8ce4
(lp2809
I1
asV\u66e8
(lp2810
I1
asV\u9a6b
(lp2811
I1
asV\u85ea
(lp2812
I1
asV\u9c6f
(lp2813
I1
asV\u9e7c
(lp2814
I1
asV\u7371
(lp2815
I1
asV\u92f0
(lp2816
I1
asV\u9673
(lp2817
I2
aI1
asV\u7575
(lp2818
I1
asV\u6ef8
(lp2819
I1
asV\u6dfa
(lp2820
I1
asV\u7a81
(lp2821
I4
asV\u5b00
(lp2822
I1
asV\u9802
(lp2823
I3
aI2
aI1
asV\u7d04
(lp2824
I1
asV\u5206
(lp2825
I3
asV\u9689
(lp2826
I1
asV\u890c
(lp2827
I1
asV\u7d2c
(lp2828
I1
asV\u4c59
(lp2829
I1
asV\u5b8f
(lp2830
I4
asV\u8514
(lp2831
I1
asV\u9a16
(lp2832
I1
asV\u939b
(lp2833
I1
asV\u5c1a
(lp2834
I3
asV\u761e
(lp2835
I1
asV\u8aa1
(lp2836
I1
asV\u8b20
(lp2837
I1
asV\u9bab
(lp2838
I1
asV\u78ad
(lp2839
I1
asV\u792c
(lp2840
I1
asV\u7daf
(lp2841
I1
asV\u7e2e
(lp2842
I1
asV\u92b1
(lp2843
I1
asV\u9032
(lp2844
I2
aI1
asV\u89b7
(lp2845
I1
asV\u8a36
(lp2846
I1
asV\u8f38
(lp2847
I1
asV\u663e
(lp2848
I2
asV\u5fc3
(lp2849
I3
aI2
asV\u7d44
(lp2850
I1
asV\u5e0c
(lp2851
I3
asV\u7246
(lp2852
I1
asV\u9748
(lp2853
I1
asV\u7e36
(lp2854
I1
asV\u965e
(lp2855
I1
asV\u8266
(lp2856
I1
asV\u5beb
(lp2857
I3
aI2
aI1
asV\u98ed
(lp2858
I2
aI1
asV\u596c
(lp2859
I1
asV\u9def
(lp2860
I1
asV\u7e6e
(lp2861
I1
asV\u92f1
(lp2862
I1
asV\u5370
(lp2863
I3
aI2
asV\u77f3
(lp2864
I3
asV\u9072
(lp2865
I1
asV\u81bf
(lp2866
I1
asV\u8ef9
(lp2867
I1
asV\u9805
(lp2868
I2
aI1
asV\u6c7a
(lp2869
I1
asV\u617c
(lp2870
I1
asV\u9a01
(lp2871
I1
asV\u76ea
(lp2872
I1
asV\u61df
(lp2873
I1
asV\u9d84
(lp2874
I1
asV\u7a6d
(lp2875
I1
asV\u880d
(lp2876
I1
asV\u8d0f
(lp2877
I1
asV\u9c42
(lp2878
I1
asV\u8594
(lp2879
I1
asV\u9917
(lp2880
I1
asV\u931b
(lp2881
I1
asV\u701d
(lp2882
I1
asV\u919c
(lp2883
I1
asV\u6a21
(lp2884
I4
asV\u4ba0
(lp2885
I1
asV\u6f23
(lp2886
I1
asV\u982d
(lp2887
I2
aI1
asV\u99ac
(lp2888
I5
aI4
aI3
aI1
asV\u9d2f
(lp2889
I1
asV\u93b0
(lp2890
I1
asV\u9435
(lp2891
I2
aI1
asV\u7a1f
(lp2892
I1
asV\u8ab6
(lp2893
I1
asV\u8cba
(lp2894
I1
asV\u7d1b
(lp2895
I1
asV\u9a41
(lp2896
I1
asV\u5bc0
(lp2897
I1
asV\u904a
(lp2898
I1
asV\u9c45
(lp2899
I1
asV\u7dc4
(lp2900
I1
asV\u9147
(lp2901
I1
asV\u7649
(lp2902
I1
asV\u74ca
(lp2903
I1
asV\u6ece
(lp2904
I1
asV\u63d0
(lp2905
I3
aI2
asV\u87a2
(lp2906
I1
asV\u9957
(lp2907
I1
asV\u9ad6
(lp2908
I1
asV\u935b
(lp2909
I2
aI1
asV\u705d
(lp2910
I1
asV\u51dc
(lp2911
I1
asV\u555f
(lp2912
I1
asV\u56de
(lp2913
I2
asV\u8a61
(lp2914
I1
asV\u8f63
(lp2915
I1
asV\u82e6
(lp2916
I3
aI2
asV\u5b6b
(lp2917
I1
asV\u9d6f
(lp2918
I1
asV\u93f0
(lp2919
I1
asV\u9452
(lp2920
I1
asV\u8af6
(lp2921
I1
asV\u8cfa
(lp2922
I1
asV\u807d
(lp2923
I3
aI2
aI1
asV\u61fc
(lp2924
I1
asV\u7d81
(lp2925
I3
aI2
aI1
asV\u7c00
(lp2926
I1
asV\U00021883
(lp2927
I1
asV\u9dd7
(lp2928
I1
asV\u5687
(lp2929
I1
asV\u5008
(lp2930
I1
asV\u4a8f
(lp2931
I1
asV\u8591
(lp2932
I1
asV\u6214
(lp2933
I1
asV\u9e97
(lp2934
I3
aI2
aI1
asV\u7d16
(lp2935
I1
asV\u9818
(lp2936
I3
aI2
aI1
asV\u9b1a
(lp2937
I1
asV\u979d
(lp2938
I1
asV\u561c
(lp2939
I1
asV\u529f
(lp2940
I6
asV\u585a
(lp2941
I1
asV\u8cb0
(lp2942
I1
asV\u81a9
(lp2943
I1
asV\u7aaf
(lp2944
I1
asV\u95b1
(lp2945
I1
asV\u50b3
(lp2946
I3
aI2
aI1
asV\u93b5
(lp2947
I1
asV\u9234
(lp2948
I1
asV\u7958
(lp2949
I1
asV\u6d36
(lp2950
I1
asV\u64bb
(lp2951
I1
asV\u613e
(lp2952
I1
asV\u9dc1
(lp2953
I1
asV\u9a44
(lp2954
I1
asV\u71c9
(lp2955
I1
asV\u534a
(lp2956
I2
asV\u8e4c
(lp2957
I1
asV\u8acf
(lp2958
I1
asV\u99d9
(lp2959
I1
asV\u9858
(lp2960
I1
asV\u9b5a
(lp2961
I3
aI1
asV\u97dd
(lp2962
I1
asV\u92df
(lp2963
I1
asV\u8de1
(lp2964
I1
asV\u8f62
(lp2965
I1
asV\u7210
(lp2966
I1
asV\u5e6c
(lp2967
I1
asV\u596e
(lp2968
I1
asV\u52e9
(lp2969
I1
asV\u93f5
(lp2970
I1
asV\u5274
(lp2971
I1
asV\u6ef7
(lp2972
I1
asV\u64fb
(lp2973
I1
asV\u6feb
(lp2974
I1
asV\u62ff
(lp2975
I3
aI2
asV\u617e
(lp2976
I1
asV\u9803
(lp2977
I1
asV\u9586
(lp2978
I1
asV\u5109
(lp2979
I1
asV\u5766
(lp2980
I4
asV\u4e8c
(lp2981
I4
aI3
asV\u898e
(lp2982
I1
asV\u6490
(lp2983
I1
asV\u7e17
(lp2984
I1
asV\u9d96
(lp2985
I1
asV\U00029919
(lp2986
I1
asV\u5b9a
(lp2987
I3
aI2
asV\u919e
(lp2988
I1
asV\u8ca0
(lp2989
I1
asV\u8823
(lp2990
I1
asV\u8aa4
(lp2991
I1
asV\u85a6
(lp2992
I1
asV\u7843
(lp2993
I1
asV\u98fd
(lp2994
I1
asV\u7c2b
(lp2995
I1
asV\u99ae
(lp2996
I1
asV\u5531
(lp2997
I3
aI2
asV\u74b0
(lp2998
I1
asV\u9472
(lp2999
I1
asV\u98c8
(lp3000
I1
asV\u6bba
(lp3001
I3
aI2
aI1
asV\u81be
(lp3002
I1
asV\u9d41
(lp3003
I1
asV\u9843
(lp3004
I1
asV\u7ac4
(lp3005
I1
asV\u7647
(lp3006
I1
asV\u55c6
(lp3007
I1
asV\u5149
(lp3008
I3
aI2
asV\u8f4d
(lp3009
I1
asV\u6ecc
(lp3010
I1
asV\u5e57
(lp3011
I1
asV\u9dd6
(lp3012
I1
asV\u58d8
(lp3013
I1
asV\u96dc
(lp3014
I3
aI2
aI1
asV\u8ce0
(lp3015
I1
asV\u8863
(lp3016
I4
aI3
aI2
asV\u8ae4
(lp3017
I1
asV\u7d06
(lp3018
I1
asV\u5eec
(lp3019
I1
asV\u7319
(lp3020
I1
asV\u9375
(lp3021
I1
asV\u6df6
(lp3022
I1
asV\u775e
(lp3023
I1
asV\u61fe
(lp3024
I1
asV\u7d00
(lp3025
I1
asV\u9e02
(lp3026
I1
asV\u6f80
(lp3027
I1
asV\u5108
(lp3028
I1
asV\u8e8d
(lp3029
I3
aI2
aI1
asV\u5f97
(lp3030
I3
aI2
asV\u9918
(lp3031
I1
asV\u9a1a
(lp3032
I1
asV\u539f
(lp3033
I2
asV\u8ca1
(lp3034
I1
asV\u8aa5
(lp3035
I1
asV\u6128
(lp3036
I1
asV\u7dab
(lp3037
I1
asV\u9ce7
(lp3038
I1
asV\u982e
(lp3039
I1
asV\u9632
(lp3040
I2
asV\u8938
(lp3041
I1
asV\u8a3a
(lp3042
I1
asV\U0002a03e
(lp3043
I1
asV\u7d40
(lp3044
I1
asV\u99c3
(lp3045
I1
asV\u7ac5
(lp3046
I1
asV\u77c7
(lp3047
I1
asV\u64e0
(lp3048
I1
asV\u50c9
(lp3049
I1
asV\u5c0d
(lp3050
I3
aI2
aI1
asV\u8ecd
(lp3051
I1
asV\u5fd7
(lp3052
I3
aI2
asV\u9c56
(lp3053
I1
asV\u58d9
(lp3054
I1
asV\u9958
(lp3055
I1
asV\u9a5a
(lp3056
I1
asV\u975c
(lp3057
I1
asV\u93df
(lp3058
I1
asV\u905e
(lp3059
I1
asV\u6ce1
(lp3060
I2
asV\u89e3
(lp3061
I3
asV\u6ae5
(lp3062
I1
asV\u8466
(lp3063
I1
asV\u9deb
(lp3064
I1
asV\u7de6
(lp3065
I1
asV\u9f6c
(lp3066
I1
asV\u7570
(lp3067
I1
asV\u91f3
(lp3068
I1
asV\u7672
(lp3069
I1
asV\u52f5
(lp3070
I1
asV\u6c76
(lp3071
I2
asV\u88f9
(lp3072
I3
aI2
asV\u9015
(lp3073
I1
asV\u477c
(lp3074
I1
asV\u807e
(lp3075
I1
asV\u9c01
(lp3076
I1
asV\u9903
(lp3077
I1
asV\u7a05
(lp3078
I1
asV\u9b84
(lp3079
I1
asV\u5707
(lp3080
I1
asV\u9a40
(lp3081
I1
asV\u7009
(lp3082
I1
asV\u8d0b
(lp3083
I1
asV\u528a
(lp3084
I1
asV\u4e0d
(lp3085
I4
asV\u6b0f
(lp3086
I1
asV\u42d9
(lp3087
I1
asV\u9c08
(lp3088
I1
asV\u942b
(lp3089
I1
asV\U0002961d
(lp3090
I1
asV\u779c
(lp3091
I1
asV\u931f
(lp3092
I1
asV\u6ea2
(lp3093
I3
aI2
asV\u8a25
(lp3094
I1
asV\u6ba4
(lp3095
I1
asV\u6727
(lp3096
I1
asV\u7e2d
(lp3097
I1
asV\u98ae
(lp3098
I1
asV\u7d32
(lp3099
I1
asV\u56b2
(lp3100
I1
asV\u53b4
(lp3101
I1
asV\u8cb6
(lp3102
I1
asV\u8452
(lp3103
I1
asV\U00024aba
(lp3104
I1
asV\u9dc0
(lp3105
I1
asV\u9943
(lp3106
I1
asV\u5ec2
(lp3107
I1
asV\u9a45
(lp3108
I1
asV\u7bc4
(lp3109
I1
asV\u75e0
(lp3110
I1
asV\u5049
(lp3111
I1
asV\u51c8
(lp3112
I1
asV\u8b4f
(lp3113
I1
asV\u684c
(lp3114
I2
asV\u6451
(lp3115
I1
asV\u9f57
(lp3116
I1
asV\u9859
(lp3117
I1
asV\u99d8
(lp3118
I1
asV\u8f4e
(lp3119
I1
asV\u565d
(lp3120
I1
asV\u97dc
(lp3121
I1
asV\u50de
(lp3122
I1
asV\u8c61
(lp3123
I4
asV\u6069
(lp3124
I4
asV\u81e8
(lp3125
I3
aI2
aI1
asV\u7e6d
(lp3126
I1
asV\u9b6f
(lp3127
I1
asV\u8efc
(lp3128
I1
asV\u9471
(lp3129
I1
asV\u55f0
(lp3130
I1
asV\u5152
(lp3131
I1
asV\u5275
(lp3132
I1
asV\u55b2
(lp3133
I1
asV\u6f77
(lp3134
I1
asV\u8879
(lp3135
I1
asV\u89f8
(lp3136
I1
asV\u8afa
(lp3137
I1
asV\u7d02
(lp3138
I1
asV\u8b16
(lp3139
I1
asV\u9208
(lp3140
I1
asV\u8e8b
(lp3141
I1
asV\u6c0c
(lp3142
I1
asV\u8b0e
(lp3143
I1
asV\u52d9
(lp3144
I1
asV\u6293
(lp3145
I3
aI2
asV\u9dd9
(lp3146
I1
asV\u969b
(lp3147
I1
asV\u991a
(lp3148
I1
asV\u559d
(lp3149
I3
aI2
asV\u8aa3
(lp3150
I1
asV\u89a5
(lp3151
I1
asV\u5eab
(lp3152
I1
asV\u7dad
(lp3153
I3
aI1
asV\u98af
(lp3154
I1
asV\u9b2e
(lp3155
I1
asV\u5630
(lp3156
I1
asV\u92b3
(lp3157
I1
asV\u84b2
(lp3158
I3
asV\u8cb7
(lp3159
I1
asV\u6a38
(lp3160
I1
asV\u975e
(lp3161
I3
asV\u633e
(lp3162
I1
asV\u592a
(lp3163
I3
asV\u8a0a
(lp3164
I1
asV\u93c9
(lp3165
I1
asV\u9248
(lp3166
I1
asV\u8ecb
(lp3167
I1
asV\u88cf
(lp3168
I1
asV\u6b4e
(lp3169
I1
asV\u8552
(lp3170
I1
asV\u76db
(lp3171
I3
aI2
asV\u7055
(lp3172
I1
asV\u90df
(lp3173
I1
asV\u7c64
(lp3174
I1
asV\u4fe1
(lp3175
I3
aI2
asV\u78ba
(lp3176
I1
asV\u8766
(lp3177
I1
asV\U000295e1
(lp3178
I1
asV\u616a
(lp3179
I1
asV\u7c6c
(lp3180
I1
asV\u98ef
(lp3181
I1
asV\u7670
(lp3182
I1
asV\u52f3
(lp3183
I1
asV\u91f5
(lp3184
I1
asV\u5074
(lp3185
I3
aI2
aI1
asV\u86fb
(lp3186
I1
asV\u6aeb
(lp3187
I1
asV\u9a03
(lp3188
I1
asV\u9905
(lp3189
I1
asV\u518a
(lp3190
I1
asV\u8d0d
(lp3191
I1
asV\u8b8e
(lp3192
I1
asV\U0002a115
(lp3193
I1
asV\u5b19
(lp3194
I1
asV\u95ab
(lp3195
I1
asV\u501f
(lp3196
I3
aI2
asV\u8a23
(lp3197
I1
asV\u8427
(lp3198
I2
asV\u93e2
(lp3199
I1
asV\u6329
(lp3200
I1
asV\u7e2b
(lp3201
I1
asV\u582f
(lp3202
I1
asV\u5bae
(lp3203
I1
asV\u79ae
(lp3204
I1
asV\u9233
(lp3205
I1
asV\u95b2
(lp3206
I1
asV\u50b4
(lp3207
I1
asV\u4fb6
(lp3208
I1
asV\u8b39
(lp3209
I1
asV\u6ab8
(lp3210
I1
asV\u89ba
(lp3211
I1
asV\u64bc
(lp3212
I3
aI2
asV\u9a43
(lp3213
I1
asV\u9dc2
(lp3214
I1
asV\u9945
(lp3215
I1
asV\u98c4
(lp3216
I3
aI2
aI1
asV\u9403
(lp3217
I1
asV\u97c6
(lp3218
I1
asV\u6253
(lp3219
I3
aI2
asV\u9c57
(lp3220
I1
asV\u9ad8
(lp3221
I3
aI2
asV\u99da
(lp3222
I1
asV\u755d
(lp3223
I1
asV\u74dc
(lp3224
I4
asV\u93de
(lp3225
I1
asV\u8f61
(lp3226
I1
asV\u8a63
(lp3227
I1
asV\u5e6b
(lp3228
I3
aI2
aI1
asV\u81ea
(lp3229
I4
aI3
asV\u9cec
(lp3230
I1
asV\u986f
(lp3231
I2
aI1
asV\u5bee
(lp3232
I2
asV\u56f0
(lp3233
I3
aI2
asV\u70f4
(lp3234
I1
asV\u4c77
(lp3235
I1
asV\u6af8
(lp3236
I1
asV\u64fc
(lp3237
I1
asV\u7e81
(lp3238
I1
asV\u9b83
(lp3239
I1
asV\u9c02
(lp3240
I1
asV\u9904
(lp3241
I1
asV\u7587
(lp3242
I1
asV\u5606
(lp3243
I1
asV\u5289
(lp3244
I1
asV\u9308
(lp3245
I1
asV\u300a
(lp3246
I3
asV\U00029e03
(lp3247
I1
asV\u898f
(lp3248
I1
asV\u8a0e
(lp3249
I1
asV\u9d97
(lp3250
I1
asV\u751c
(lp3251
I3
aI2
asV\u921e
(lp3252
I1
asV\u8ea1
(lp3253
I1
asV\u78da
(lp3254
I1
asV\u7d30
(lp3255
I1
asV\u6328
(lp3256
I3
aI2
asV\u5d2c
(lp3257
I1
asV\u9a2e
(lp3258
I1
asV\u96b1
(lp3259
I2
aI1
asV\u93b3
(lp3260
I1
asV\u9432
(lp3261
I1
asV\u50b5
(lp3262
I1
asV\u9134
(lp3263
I1
asV\u8ab9
(lp3264
I1
asV\u87bb
(lp3265
I1
asV\u95c6
(lp3266
I1
asV\u5ec1
(lp3267
I1
asV\u9daf
(lp3268
I1
asV\U00029944
(lp3269
I1
asV\u55c7
(lp3270
I1
asV\u7646
(lp3271
I1
asV\u92c9
(lp3272
I1
asV\u9348
(lp3273
I1
asV\u9436
(lp3274
I1
asV\u8a4e
(lp3275
I1
asV\u6ce2
(lp3276
I9
aI3
asV\u7dd7
(lp3277
I1
asV\u7ad9
(lp3278
I3
aI2
asV\u5b58
(lp3279
I2
asV\u7f8e
(lp3280
I3
aI2
asV\u9dbb
(lp3281
I1
asV\u71df
(lp3282
I1
asV\u925e
(lp3283
I1
asV\u723a
(lp3284
I1
asV\u8964
(lp3285
I1
asV\u6368
(lp3286
I1
asV\u5feb
(lp3287
I5
aI3
asV\u9d6c
(lp3288
I1
asV\u7472
(lp3289
I1
asV\u90f5
(lp3290
I1
asV\u58ae
(lp3291
I1
asV\u6b78
(lp3292
I1
asV\u87fb
(lp3293
I1
asV\u84fd
(lp3294
I1
asV\u627e
(lp3295
I3
asV\u5805
(lp3296
I1
asV\u9209
(lp3297
I1
asV\u908a
(lp3298
I1
asV\u690f
(lp3299
I1
asV\u9d17
(lp3300
I1
asV\u7e96
(lp3301
I1
asV\u9a19
(lp3302
I3
aI2
aI1
asV\u941d
(lp3303
I1
asV\u511f
(lp3304
I1
asV\u9db2
(lp3305
I1
asV\u6fa0
(lp3306
I1
asV\u8ca2
(lp3307
I1
asV\u6229
(lp3308
I1
asV\u5c46
(lp3309
I1
asV\u9c2d
(lp3310
I1
asV\u9dac
(lp3311
I1
asV\u9670
(lp3312
I1
asV\u7aae
(lp3313
I1
asV\u9333
(lp3314
I1
asV\u9948
(lp3315
I1
asV\u6a39
(lp3316
I1
asV\u379e
(lp3317
I1
asV\u843d
(lp3318
I3
aI2
asV\u65bc
(lp3319
I4
aI3
aI2
aI1
asV\u9249
(lp3320
I1
asV\u93c8
(lp3321
I1
asV\u894f
(lp3322
I1
asV\u58bb
(lp3323
I1
asV\u5d57
(lp3324
I1
asV\U00027a59
(lp3325
I1
asV\u58da
(lp3326
I1
asV\u95dc
(lp3327
I3
aI2
aI1
asV\u52de
(lp3328
I1
asV\u4fe0
(lp3329
I1
asV\u8ce2
(lp3330
I1
asV\u69e4
(lp3331
I1
asV\u9d50
(lp3332
I1
asV\u747d
(lp3333
I1
asV\u9c6d
(lp3334
I1
asV\u7dec
(lp3335
I1
asV\u9aee
(lp3336
I1
asV\u7671
(lp3337
I1
asV\u57f0
(lp3338
I1
asV\u5373
(lp3339
I3
asV\u5075
(lp3340
I1
asV\u71f4
(lp3341
I1
asV\u6d77
(lp3342
I2
asV\u56a8
(lp3343
I1
as.