(dp1
V\u8000
(lp2
I3
aI2
asV\u6302
(lp3
I2
aI1
asV\u6000
(lp4
I2
aI1
asV\u8c08
(lp5
I2
aI1
asV\u908b
(lp6
I4
asV\u4f0a
(lp7
I6
aI5
aI4
aI3
aI2
asV\u538d
(lp8
I1
asV\u968f
(lp9
I2
aI1
asV\u950e
(lp10
I1
asV\u9991
(lp11
I1
asV\u9c93
(lp12
I1
asV\u9b12
(lp13
I2
asV\u5f95
(lp14
I1
asV\u6297
(lp15
I3
aI2
asV\u8599
(lp16
I2
asV\u7785
(lp17
I3
asV\u6e9f
(lp18
I2
asV\u8d1e
(lp19
I1
asV\U00029f80
(lp20
I1
asV\u9020
(lp21
I3
aI2
asV\u94a3
(lp22
I1
asV\U0002b624
(lp23
I1
asV\u9aa7
(lp24
I1
asV\u60ab
(lp25
I1
asV\u7f2a
(lp26
I1
asV\u622c
(lp27
I2
aI1
asV\u4f5c
(lp28
I4
aI3
aI2
asV\u6cb3
(lp29
I4
aI2
asV\u6b32
(lp30
I4
aI2
asV\u4fb5
(lp31
I3
aI2
asV\u4e34
(lp32
I4
aI1
asV\u72b7
(lp33
I1
asV\u7136
(lp34
I7
asV\u9535
(lp35
I1
asV\u573a
(lp36
I1
asV\u5bbd
(lp37
I4
aI2
aI1
asV\u7ebf
(lp38
I1
asV\u9edb
(lp39
I3
asV\U00028c48
(lp40
I1
asV\u8bb6
(lp41
I1
asV\u73cd
(lp42
I9
aI4
asV\u96cf
(lp43
I1
asV\u954e
(lp44
I1
asV\u79d1
(lp45
I2
asV\u9f39
(lp46
I1
asV\u9cd3
(lp47
I1
asV\u7fd5
(lp48
I2
asV\u9e54
(lp49
I1
asV\u62d7
(lp50
I2
asV\u7eb8
(lp51
I2
aI1
asV\u82e5
(lp52
I2
asV\U0002b50e
(lp53
I1
asV\u8bdd
(lp54
I4
aI1
asV\u6edf
(lp55
I1
asV\u8d5e
(lp56
I4
aI2
aI1
asV\u9060
(lp57
I3
aI2
asV\u94e3
(lp58
I1
asV\u5362
(lp59
I3
aI1
asV\u9664
(lp60
I3
asV\u9966
(lp61
I1
asV\u5de9
(lp62
I1
asV\u60eb
(lp63
I1
asV\u63ed
(lp64
I2
asV\u626c
(lp65
I1
asV\u9985
(lp66
I1
asV\u6cf3
(lp67
I3
asV\u7968
(lp68
I2
asV\u95f9
(lp69
I4
aI2
aI1
asV\u9a7c
(lp70
I1
asV\u7eff
(lp71
I2
aI1
asV\u4e14
(lp72
I2
asV\u8297
(lp73
I1
asV\u8986
(lp74
I7
aI4
aI3
aI2
asV\u6c88
(lp75
I4
aI3
aI2
asV\u900b
(lp76
I2
asV\u8f8a
(lp77
I1
asV\u960f
(lp78
I1
asV\u9890
(lp79
I1
asV\u5f15
(lp80
I2
asV\u5e94
(lp81
I3
aI2
aI1
asV\u6217
(lp82
I1
asV\u6d45
(lp83
I2
aI1
asV\u989b
(lp84
I1
asV\u73ae
(lp85
I1
asV\u6d9e
(lp86
I1
asV\u7121
(lp87
I4
asV\u5423
(lp88
I1
asV\u53a2
(lp89
I1
asV\u5047
(lp90
I2
asV\u9ca8
(lp91
I1
asV\u602b
(lp92
I2
asV\u5faa
(lp93
I3
aI2
asV\u62ac
(lp94
I3
aI2
asV\u85ae
(lp95
I1
asV\U00029f88
(lp96
I1
asV\u68b0
(lp97
I2
asV\u8c33
(lp98
I1
asV\u8bb2
(lp99
I1
asV\u7e9f
(lp100
I1
asV\u7237
(lp101
I1
asV\u51b6
(lp102
I2
asV\u9539
(lp103
I1
asV\u94b8
(lp104
I1
asV\u783b
(lp105
I3
aI1
asV\u9e3f
(lp106
I4
aI2
aI1
asV\u80c0
(lp107
I1
asV\u75ca
(lp108
I2
asV\u89c6
(lp109
I2
aI1
asV\u8d49
(lp110
I1
asV\u8cc8
(lp111
I2
asV\u98d0
(lp112
I1
asV\u5bd2
(lp113
I3
aI2
asV\u5f55
(lp114
I2
aI1
asV\u7ed4
(lp115
I1
asV\u6559
(lp116
I3
aI2
asV\u64d8
(lp117
I2
asV\u885b
(lp118
I1
asV\u4e5f
(lp119
I4
aI3
asV\u8dde
(lp120
I1
asV\u9765
(lp121
I1
asV\U000299e6
(lp122
I1
asV\u836d
(lp123
I1
asV\u6653
(lp124
I1
asV\u666f
(lp125
I2
asV\U00029f7c
(lp126
I1
asV\u8bf2
(lp127
I1
asV\u8f75
(lp128
I1
asV\u51f6
(lp129
I4
aI3
aI2
asV\u94f8
(lp130
I2
aI1
asV\u987b
(lp131
I3
aI2
aI1
asV\u57fa
(lp132
I2
asV\u9afc
(lp133
I2
asV\u5e7f
(lp134
I2
aI1
asV\u94d4
(lp135
I1
asV\u8202
(lp136
I2
asV\u6b87
(lp137
I1
asV\u6c89
(lp138
I3
aI2
asV\u918b
(lp139
I2
asV\u4e0a
(lp140
I3
aI2
asV\u540e
(lp141
I4
aI3
aI2
aI1
asV\u9891
(lp142
I1
asV\u7d93
(lp143
I3
asV\u6682
(lp144
I1
asV\uff14
(lp145
I3
aI2
asV\u3ed8
(lp146
I1
asV\u8499
(lp147
I4
aI3
aI2
asV\u54a8
(lp148
I2
asV\u8f9f
(lp149
I4
aI2
asV\u8c1e
(lp150
I1
asV\u7ba7
(lp151
I1
asV\u9ca9
(lp152
I1
asV\u9e2a
(lp153
I1
asV\u9cb3
(lp154
I1
asV\u67af
(lp155
I2
asV\u6930
(lp156
I3
asV\u8db3
(lp157
I2
asV\u4eb5
(lp158
I1
asV\u4f34
(lp159
I3
aI2
asV\u9988
(lp160
I1
asV\u94b9
(lp161
I1
asV\u9538
(lp162
I1
asV\u79bb
(lp163
I2
aI1
asV\u9b3c
(lp164
I3
asV\u6e34
(lp165
I3
aI2
asV\u80c1
(lp166
I1
asV\u707f
(lp167
I1
asV\U0002a242
(lp168
I1
asV\u8bc7
(lp169
I1
asV\u6d48
(lp170
I1
asV\u7f69
(lp171
I3
aI2
asV\u98d1
(lp172
I1
asV\u7ed5
(lp173
I2
aI1
asV\u4056
(lp174
I1
asV\u69db
(lp175
I1
asV\u665a
(lp176
I2
asV\u8fdf
(lp177
I1
asV\U00029806
(lp178
I1
asV\u8c11
(lp179
I1
asV\u5764
(lp180
I2
asV\u7ea7
(lp181
I1
asV\u9e6a
(lp182
I1
asV\u62ed
(lp183
I2
asV\u836c
(lp184
I1
asV\u67ef
(lp185
I3
asV\u68f1
(lp186
I3
aI2
asV\u8df3
(lp187
I4
aI3
aI2
asV\u8f74
(lp188
I1
asV\u53f7
(lp189
I2
aI1
asV\u94f9
(lp190
I1
asV\u5578
(lp191
I1
asV\u79fb
(lp192
I4
aI3
asV\u6d3e
(lp193
I4
asV\u7b7c
(lp194
I1
asV\u9c7e
(lp195
I1
asV\u8001
(lp196
I3
aI2
asV\u8282
(lp197
I2
aI1
asV\u6784
(lp198
I1
asV\u8886
(lp199
I1
asV\u6d88
(lp200
I3
asV\u520d
(lp201
I1
asV\u538c
(lp202
I1
asV\u948e
(lp203
I1
asV\u5811
(lp204
I1
asV\u9019
(lp205
I2
asV\u9a92
(lp206
I1
asV\u5e15
(lp207
I2
asV\u891b
(lp208
I1
asV\u36e0
(lp209
I1
asV\u4f1f
(lp210
I1
asV\u8c9e
(lp211
I3
aI2
asV\u9523
(lp212
I1
asV\u629a
(lp213
I1
asV\u98a6
(lp214
I1
asV\u7eaa
(lp215
I3
aI2
aI1
asV\u672f
(lp216
I2
aI1
asV\u829c
(lp217
I1
asV\u8d33
(lp218
I1
asV\u5439
(lp219
I3
aI2
asV\u76ba
(lp220
I3
aI2
asV\u7a3d
(lp221
I2
asV\u7cbe
(lp222
I3
aI2
asV\u62c2
(lp223
I4
asV\u7877
(lp224
I1
asV\u88c6
(lp225
I1
asV\U00028c49
(lp226
I1
asV\u53cd
(lp227
I3
aI2
asV\u514b
(lp228
I5
aI4
aI2
asV\u524d
(lp229
I6
aI3
asV\u53cc
(lp230
I3
aI2
aI1
asV\u574f
(lp231
I2
aI1
asV\u94ce
(lp232
I1
asV\u5f79
(lp233
I2
asV\u5ad2
(lp234
I1
asV\u9e55
(lp235
I1
asV\u76cf
(lp236
I1
asV\u8bdc
(lp237
I1
asV\u6cde
(lp238
I1
asV\U0002b061
(lp239
I1
asV\u51e0
(lp240
I4
aI3
aI2
aI1
asV\u9563
(lp241
I1
asV\U00029665
(lp242
I1
asV\u3c69
(lp243
I1
asV\u917d
(lp244
I1
asV\u9eea
(lp245
I1
asV\u676f
(lp246
I2
asV\u5377
(lp247
I4
aI3
aI2
asV\u95f8
(lp248
I1
asV\u997b
(lp249
I1
asV\u56fa
(lp250
I2
asV\u9a7d
(lp251
I1
asV\u5bfc
(lp252
I2
aI1
asV\u9f7f
(lp253
I4
aI2
aI1
asV\u6200
(lp254
I3
aI2
asV\u9ebb
(lp255
I3
aI2
asV\u8f89
(lp256
I1
asV\u9f83
(lp257
I1
asV\u948f
(lp258
I1
asV\U00029a10
(lp259
I1
asV\u5e93
(lp260
I1
asV\u5c14
(lp261
I3
aI1
asV\u60ae
(lp262
I1
asV\u4c9f
(lp263
I1
asV\u4f1e
(lp264
I1
asV\u5220
(lp265
I1
asV\u56a3
(lp266
I1
asV\u98a7
(lp267
I1
asV\u7fa9
(lp268
I3
asV\u9e28
(lp269
I1
asV\u62ab
(lp270
I4
aI3
aI2
asV\u8206
(lp271
I1
asV\u8bb1
(lp272
I1
asV\u6eb2
(lp273
I2
asV\u6db5
(lp274
I3
aI2
asV\u6c34
(lp275
I5
aI3
aI2
asV\U0002b413
(lp276
I1
asV\u953a
(lp277
I1
asV\u63bc
(lp278
I1
asV\u5cbf
(lp279
I1
asV\u8bb4
(lp280
I1
asV\u6240
(lp281
I3
aI2
asV\u65c5
(lp282
I2
asV\u6444
(lp283
I2
aI1
asV\u4e48
(lp284
I4
asV\u52cb
(lp285
I2
aI1
asV\u8d4a
(lp286
I1
asV\u91cd
(lp287
I3
aI2
asV\u704c
(lp288
I2
asV\u94cf
(lp289
I1
asV\u7bd1
(lp290
I1
asV\u7ed3
(lp291
I4
aI2
aI1
asV\U0002b362
(lp292
I1
asV\u6e0e
(lp293
I1
asV\u8d3b
(lp294
I2
aI1
asV\U00029667
(lp295
I1
asV\u5b66
(lp296
I2
aI1
asV\u9e68
(lp297
I1
asV\u8bf1
(lp298
I2
aI1
asV\u5012
(lp299
I4
asV\u8df5
(lp300
I1
asV\u7678
(lp301
I2
asV\u79fd
(lp302
I1
asV\u987c
(lp303
I1
asV\u9c89
(lp304
I1
asV\U00029f7e
(lp305
I1
asV\u6301
(lp306
I3
aI2
asV\u5618
(lp307
I1
asV\u6484
(lp308
I1
asV\u6807
(lp309
I4
aI2
aI1
asV\u8f09
(lp310
I3
aI2
asV\u740f
(lp311
I1
asV\u7b11
(lp312
I4
aI3
aI2
asV\u9a90
(lp313
I1
asV\u9992
(lp314
I1
asV\u9c94
(lp315
I1
asV\u6396
(lp316
I3
aI2
asV\u956e
(lp317
I1
asV\u889c
(lp318
I1
asV\u8c1f
(lp319
I1
asV\u8f9e
(lp320
I2
aI1
asV\u7321
(lp321
I1
asV\u52a0
(lp322
I4
aI2
asV\U0002b623
(lp323
I1
asV\u9525
(lp324
I1
asV\u54a4
(lp325
I1
asV\u7ba6
(lp326
I1
asV\u7f29
(lp327
I2
aI1
asV\u7ea8
(lp328
I1
asV\u8fd4
(lp329
I2
asV\u60ac
(lp330
I3
aI2
aI1
asV\u8d35
(lp331
I2
aI1
asV\u5739
(lp332
I1
asV\u7a3b
(lp333
I2
asV\u9e74
(lp334
I1
asV\u4341
(lp335
I1
asV\u6643
(lp336
I3
aI2
asV\u6545
(lp337
I3
aI2
asV\u84c4
(lp338
I2
asV\u8bc6
(lp339
I1
asV\u8f49
(lp340
I3
aI2
asV\u5176
(lp341
I4
aI3
aI2
asV\u514d
(lp342
I2
asV\u60e7
(lp343
I1
asV\u57ce
(lp344
I2
asV\u7b51
(lp345
I2
aI1
asV\u9e53
(lp346
I1
asV\u79d2
(lp347
I3
aI2
asV\u9cd4
(lp348
I1
asV\u4759
(lp349
I1
asV\u8fde
(lp350
I4
aI2
aI1
asV\u5c51
(lp351
I2
asV\u7663
(lp352
I1
asV\u9565
(lp353
I1
asV\u94e4
(lp354
I1
asV\u5f69
(lp355
I3
aI2
asV\u7ee8
(lp356
I1
asV\u626b
(lp357
I2
aI1
asV\u816d
(lp358
I1
asV\u60ec
(lp359
I1
asV\u5cc4
(lp360
I1
asV\u8d75
(lp361
I3
aI2
aI1
asV\u8cf4
(lp362
I4
aI3
asV\u5077
(lp363
I4
aI3
aI2
asV\u53f6
(lp364
I4
aI3
aI2
aI1
asV\u76f8
(lp365
I3
aI2
asV\u9a7b
(lp366
I2
aI1
asV\u95fa
(lp367
I2
aI1
asV\u597d
(lp368
I4
aI3
aI2
asV\u7bab
(lp369
I1
asV\u9c7f
(lp370
I1
asV\u6bd4
(lp371
I2
asV\u6002
(lp372
I1
asV\u6987
(lp373
I1
asV\u9080
(lp374
I4
asV\u4e89
(lp375
I4
aI2
aI1
asV\u738b
(lp376
I3
aI2
asV\u8c0a
(lp377
I1
asV\u7403
(lp378
I2
asV\u758f
(lp379
I2
asV\u960e
(lp380
I1
asV\u7a91
(lp381
I1
asV\u9812
(lp382
I2
asV\u9c95
(lp383
I1
asV\U00026216
(lp384
I1
asV\u5e2e
(lp385
I2
aI1
asV\u6d9f
(lp386
I1
asV\u52a1
(lp387
I1
asV\u62b1
(lp388
I6
aI4
aI3
aI2
asV\u97a3
(lp389
I2
asV\u94a5
(lp390
I1
asV\u9524
(lp391
I2
aI1
asV\u7ea9
(lp392
I1
asV\u7f28
(lp393
I1
asV\u83ab
(lp394
I4
asV\u5986
(lp395
I1
asV\u60ad
(lp396
I1
asV\u65af
(lp397
I5
asV\u8d34
(lp398
I1
asV\u51b7
(lp399
I3
aI2
asV\u5236
(lp400
I3
aI2
asV\u9738
(lp401
I2
asV\u793c
(lp402
I2
aI1
asV\u9e3e
(lp403
I1
asV\u82c1
(lp404
I1
asV\u4340
(lp405
I1
asV\u8042
(lp406
I1
asV\u89c7
(lp407
I1
asV\U0002b5e0
(lp408
I1
asV\U0002b3cb
(lp409
I1
asV\U00028c4a
(lp410
I1
asV\u5b50
(lp411
I4
aI2
asV\u56e2
(lp412
I2
aI1
asV\u9cd5
(lp413
I1
asV\u6bdb
(lp414
I4
aI2
asV\u88dd
(lp415
I3
aI2
asV\u8ddf
(lp416
I3
aI2
asV\u5360
(lp417
I6
aI5
aI4
aI3
aI2
asV\u7f15
(lp418
I1
asV\u34e5
(lp419
I1
asV\u9564
(lp420
I1
asV\u7ee9
(lp421
I1
asV\u804c
(lp422
I1
asV\u60ed
(lp423
I1
asV\u866e
(lp424
I4
aI1
asV\u8ff3
(lp425
I1
asV\uff15
(lp426
I3
aI2
asV\u5bfb
(lp427
I1
asV\u997c
(lp428
I2
aI1
asV\u5e7e
(lp429
I5
asV\u6703
(lp430
I3
asV\u6405
(lp431
I1
asV\u8584
(lp432
I2
asV\u4e09
(lp433
I4
aI3
aI2
asV\u8f88
(lp434
I1
asV\u900d
(lp435
I3
asV\u518c
(lp436
I1
asV\u950f
(lp437
I1
asV\u7f13
(lp438
I2
aI1
asV\u9892
(lp439
I1
asV\u7ec3
(lp440
I1
asV\u9498
(lp441
I1
asV\u6619
(lp442
I1
asV\u649a
(lp443
I2
asV\u8d1f
(lp444
I4
aI1
asV\u4e9e
(lp445
I4
asV\u5723
(lp446
I7
aI1
asV\u5927
(lp447
I7
aI5
aI4
aI3
aI2
asV\u7aa6
(lp448
I1
asV\u9e29
(lp449
I1
asV\u9caa
(lp450
I1
asV\u9973
(lp451
I1
asV\u652f
(lp452
I2
asV\u9a9c
(lp453
I1
asV\u6a31
(lp454
I1
asV\u8bb0
(lp455
I1
asV\u8c35
(lp456
I1
asV\u8db4
(lp457
I3
aI2
asV\u9495
(lp458
I1
asV\u72b6
(lp459
I1
asV\u9a75
(lp460
I1
asV\u94ba
(lp461
I1
asV\u7ebe
(lp462
I1
asV\u6241
(lp463
I5
asV\u6743
(lp464
I1
asV\u6445
(lp465
I1
asV\u80a0
(lp466
I1
asV\u4e49
(lp467
I2
aI1
asV\u8fc8
(lp468
I7
aI6
aI1
asV\u91cc
(lp469
I4
aI3
aI2
asV\u954f
(lp470
I1
asV\u7a51
(lp471
I1
asV\u5f53
(lp472
I7
aI4
aI2
aI1
asV\u98d2
(lp473
I1
asV\u5c55
(lp474
I3
aI2
asV\u9c81
(lp475
I1
asV\u62d6
(lp476
I3
aI2
asV\u9e26
(lp477
I1
asV\u64da
(lp478
I3
aI2
asV\u8d5f
(lp479
I1
asV\u6ede
(lp480
I1
asV\u53e0
(lp481
I1
asV\u9967
(lp482
I1
asV\u9e69
(lp483
I1
asV\u836b
(lp484
I1
asV\u86ee
(lp485
I2
aI1
asV\u6a71
(lp486
I1
asV\u8bf0
(lp487
I1
asV\u8f73
(lp488
I1
asV\u94d5
(lp489
I1
asV\u94fa
(lp490
I4
aI1
asV\u987d
(lp491
I1
asV\U000299fc
(lp492
I1
asV\u7efe
(lp493
I2
aI1
asV\u6400
(lp494
I1
asV\u8083
(lp495
I1
asV\u8702
(lp496
I2
asV\u8385
(lp497
I1
asV\u5600
(lp498
I4
asV\u6989
(lp499
I1
asV\u6808
(lp500
I1
asV\u948b
(lp501
I1
asV\u960c
(lp502
I1
asV\u7d91
(lp503
I2
asV\u5893
(lp504
I3
aI2
asV\uff12
(lp505
I3
aI2
asV\u6697
(lp506
I3
aI2
asV\u2018
(lp507
I1
asV\u631a
(lp508
I1
asV\u4f9d
(lp509
I4
aI2
asV\u4e1c
(lp510
I4
aI3
aI2
aI1
asV\u9980
(lp511
I1
asV\u6004
(lp512
I1
asV\u75a1
(lp513
I1
asV\u90a3
(lp514
I3
aI2
asV\u5224
(lp515
I3
asV\u5ea7
(lp516
I2
asV\u59a9
(lp517
I1
asV\u67ad
(lp518
I1
asV\u8db1
(lp519
I2
aI1
asV\u8c30
(lp520
I1
asV\u68b3
(lp521
I3
aI2
asV\u8bb5
(lp522
I1
asV\u56b7
(lp523
I3
aI2
asV\u9536
(lp524
I1
asV\u5f35
(lp525
I3
asV\u9cbb
(lp526
I1
asV\u533a
(lp527
I2
aI1
asV\u5e3c
(lp528
I1
asV\U00029f85
(lp529
I1
asV\u593e
(lp530
I3
aI2
asV\u65c1
(lp531
I4
aI2
asV\u80c3
(lp532
I2
asV\u6742
(lp533
I4
aI2
aI1
asV\U0002a251
(lp534
I1
asV\U0002a244
(lp535
I1
asV\u4ec7
(lp536
I2
asV\u6d46
(lp537
I1
asV\u89c9
(lp538
I1
asV\u94cb
(lp539
I1
asV\u714e
(lp540
I2
asV\u8539
(lp541
I1
asV\u98d3
(lp542
I1
asV\u5f52
(lp543
I2
aI1
asV\u54b8
(lp544
I4
aI3
aI2
asV\u8058
(lp545
I2
asV\u6cdb
(lp546
I2
asV\u835a
(lp547
I1
asV\u4fdd
(lp548
I4
aI3
asV\u9762
(lp549
I3
aI2
asV\u9264
(lp550
I4
aI1
asV\u7ee7
(lp551
I1
asV\u6e10
(lp552
I1
asV\U000299e9
(lp553
I1
asV\u5b6a
(lp554
I1
asV\u866c
(lp555
I1
asV\u6df1
(lp556
I5
aI3
asV\u8f72
(lp557
I1
asV\u8bf5
(lp558
I1
asV\u7576
(lp559
I3
aI2
asV\u51f9
(lp560
I3
asV\u7cfb
(lp561
I4
aI3
aI2
asV\u537a
(lp562
I1
asV\u8beb
(lp563
I1
asV\u997e
(lp564
I1
asV\u8003
(lp565
I3
aI2
asV\u7f25
(lp566
I1
asV\u8305
(lp567
I5
asV\u4e07
(lp568
I4
aI3
aI2
aI1
asV\u8b8a
(lp569
I3
aI2
asV\u570d
(lp570
I3
aI2
asV\u9c90
(lp571
I1
asV\u5f92
(lp572
I4
asV\u7b15
(lp573
I1
asV\u9a94
(lp574
I1
asV\u9984
(lp575
I3
aI1
asV\u8c1b
(lp576
I1
asV\u8e9c
(lp577
I1
asV\u5521
(lp578
I1
asV\u94a0
(lp579
I1
asV\u9023
(lp580
I3
aI2
asV\u9e27
(lp581
I1
asV\U0002b370
(lp582
I1
asV\u5929
(lp583
I4
aI3
aI2
asV\u58a8
(lp584
I4
aI2
asV\u7baa
(lp585
I1
asV\u86ac
(lp586
I1
asV\u622f
(lp587
I1
asV\u8d31
(lp588
I1
asV\u9cc8
(lp589
I1
asV\u70b8
(lp590
I3
aI2
asV\u73ba
(lp591
I1
asV\u804b
(lp592
I1
asV\u79be
(lp593
I2
asV\u64c0
(lp594
I2
asV\u88c8
(lp595
I1
asV\u8bca
(lp596
I1
asV\u71ce
(lp597
I2
asV\u9cd0
(lp598
I1
asV\u9522
(lp599
I1
asV\u548e
(lp600
I2
asV\u5ad4
(lp601
I1
asV\u45d6
(lp602
I1
asV\u6a5f
(lp603
I3
asV\u89de
(lp604
I1
asV\u9561
(lp605
I1
asV\u94e0
(lp606
I1
asV\u52e4
(lp607
I2
asV\u9e67
(lp608
I1
asV\u5de6
(lp609
I4
asV\u9969
(lp610
I1
asV\u78e8
(lp611
I2
asV\u846b
(lp612
I7
asV\u626f
(lp613
I2
asV\u6cf0
(lp614
I4
asV\u8bd2
(lp615
I1
asV\u95f6
(lp616
I1
asV\u5179
(lp617
I1
asV\u90f8
(lp618
I1
asV\u7c7b
(lp619
I1
asV\u8cf8
(lp620
I2
asV\U00029f7d
(lp621
I1
asV\u7efc
(lp622
I1
asV\u9a7f
(lp623
I1
asV\u79fe
(lp624
I1
asV\u5a01
(lp625
I2
asV\u6602
(lp626
I3
aI2
asV\u8f87
(lp627
I1
asV\u8c06
(lp628
I1
asV\u8d4f
(lp629
I2
aI1
asV\u958b
(lp630
I3
aI2
asV\U0002aa0a
(lp631
I1
asV\u5f03
(lp632
I2
aI1
asV\u842c
(lp633
I3
asV\u9c91
(lp634
I1
asV\u7559
(lp635
I3
aI2
asV\u9993
(lp636
I1
asV\u4882
(lp637
I1
asV\u9a95
(lp638
I1
asV\u7b14
(lp639
I4
aI2
aI1
asV\u6797
(lp640
I3
aI2
asV\u97eb
(lp641
I1
asV\u6d9b
(lp642
I1
asV\u532e
(lp643
I1
asV\u94a1
(lp644
I1
asV\u9520
(lp645
I1
asV\u9928
(lp646
I2
asV\u65ab
(lp647
I4
asV\u97b2
(lp648
I1
asV\u672c
(lp649
I3
aI2
asV\u8d30
(lp650
I1
asV\u6e5f
(lp651
I4
asV\u70b9
(lp652
I3
aI2
aI1
asV\U0002b138
(lp653
I1
asV\u523a
(lp654
I2
asV\u7ebd
(lp655
I1
asV\u5aaa
(lp656
I1
asV\u5bbf
(lp657
I2
asV\u783e
(lp658
I1
asV\u6642
(lp659
I3
asV\u62c5
(lp660
I3
aI2
aI1
asV\u8fc7
(lp661
I3
aI2
aI1
asV\u8c46
(lp662
I3
aI2
asV\u68c9
(lp663
I2
asV\u504e
(lp664
I2
asV\u9cd1
(lp665
I1
asV\u9e52
(lp666
I1
asV\u7b54
(lp667
I2
asV\u8e0a
(lp668
I1
asV\u6f5c
(lp669
I4
aI3
aI1
asV\u8bdf
(lp670
I1
asV\u94e1
(lp671
I1
asV\u9560
(lp672
I1
asV\u5364
(lp673
I2
aI1
asV\u5fe7
(lp674
I2
aI1
asV\u5c66
(lp675
I1
asV\u9968
(lp676
I1
asV\u6cf1
(lp677
I2
asV\u8d70
(lp678
I3
aI2
asV\u7476
(lp679
I2
aI1
asV\u5178
(lp680
I2
asV\u727a
(lp681
I1
asV\u7efd
(lp682
I1
asV\u5f7c
(lp683
I4
asV\u5bff
(lp684
I2
aI1
asV\u987e
(lp685
I1
asV\u6401
(lp686
I1
asV\u8682
(lp687
I1
asV\u6809
(lp688
I3
aI1
asV\u6988
(lp689
I1
asV\u950b
(lp690
I1
asV\u8a8a
(lp691
I1
asV\u960d
(lp692
I1
asV\u72c3
(lp693
I2
asV\u530f
(lp694
I2
asV\u62ec
(lp695
I2
asV\u5c11
(lp696
I2
asV\u8717
(lp697
I1
asV\u2019
(lp698
I1
asV\u6d1b
(lp699
I4
asV\u60af
(lp700
I1
asV\u4e1d
(lp701
I4
aI3
aI2
aI1
asV\u6f9c
(lp702
I1
asV\u75a0
(lp703
I1
asV\u5c9a
(lp704
I1
asV\u7cc7
(lp705
I1
asV\u7f27
(lp706
I1
asV\u9ca6
(lp707
I1
asV\u601d
(lp708
I4
asV\u6f46
(lp709
I1
asV\u632f
(lp710
I2
asV\u80ae
(lp711
I4
aI2
aI1
asV\u8c31
(lp712
I1
asV\u87a8
(lp713
I1
asV\u4eb2
(lp714
I1
asV\u6a35
(lp715
I2
asV\u951f
(lp716
I1
asV\u94b6
(lp717
I1
asV\u9e3d
(lp718
I1
asV\u6ca3
(lp719
I1
asV\U0002a245
(lp720
I1
asV\u6f47
(lp721
I2
aI1
asV\u89c8
(lp722
I1
asV\u954b
(lp723
I1
asV\u964d
(lp724
I3
asV\u534f
(lp725
I1
asV\u4fe6
(lp726
I1
asV\u94d1
(lp727
I1
asV\u7ed2
(lp728
I1
asV\u8d5b
(lp729
I1
asV\u4e5d
(lp730
I4
aI3
aI2
asV\u8fdc
(lp731
I4
aI2
aI1
asV\u6fd1
(lp732
I1
asV\U0002b6e2
(lp733
I1
asV\u5265
(lp734
I2
aI1
asV\u53e4
(lp735
I3
aI2
asV\u5ce6
(lp736
I1
asV\U000299e8
(lp737
I1
asV\u836f
(lp738
I4
aI3
aI2
aI1
asV\u60ee
(lp739
I1
asV\u8d52
(lp740
I1
asV\u6e7f
(lp741
I1
asV\u94f6
(lp742
I2
aI1
asV\u52fa
(lp743
I2
asV\u6781
(lp744
I1
asV\u8502
(lp745
I1
asV\u54d7
(lp746
I1
asV\u8a08
(lp747
I3
asV\u540c
(lp748
I2
asV\u730e
(lp749
I1
asV\u5e10
(lp750
I1
asV\u9a93
(lp751
I1
asV\u9995
(lp752
I1
asV\u7814
(lp753
I2
asV\u5ba1
(lp754
I1
asV\u6399
(lp755
I3
aI2
asV\u6218
(lp756
I4
aI2
aI1
asV\u811a
(lp757
I2
aI1
asV\u6d9d
(lp758
I1
asV\u8c1c
(lp759
I1
asV\u52a3
(lp760
I2
asV\u5522
(lp761
I1
asV\u51a5
(lp762
I2
asV\u9ca7
(lp763
I1
asV\u7f26
(lp764
I1
asV\u7ba9
(lp765
I1
asV\u5ddd
(lp766
I2
asV\u592a
(lp767
I4
aI3
aI2
asV\u65ad
(lp768
I4
aI2
aI1
asV\u642c
(lp769
I2
asV\u80af
(lp770
I3
aI2
asV\u4e30
(lp771
I4
aI3
aI2
aI1
asV\u8d32
(lp772
I1
asV\u94b7
(lp773
I1
asV\u7ebb
(lp774
I1
asV\u3dbd
(lp775
I1
asV\u5c3c
(lp776
I4
aI3
aI2
asV\u9f13
(lp777
I2
asV\u7b3e
(lp778
I1
asV\u6e0a
(lp779
I4
aI1
asV\u4f46
(lp780
I2
asV\u8bc9
(lp781
I3
aI1
asV\u90cf
(lp782
I1
asV\u534e
(lp783
I3
aI2
aI1
asV\u9e50
(lp784
I1
asV\u99d5
(lp785
I3
aI2
asV\u6258
(lp786
I4
aI3
aI2
asV\u68bc
(lp787
I1
asV\u9562
(lp788
I1
asV\u5f66
(lp789
I1
asV\u996a
(lp790
I1
asV\u60ef
(lp791
I1
asV\u636e
(lp792
I6
aI2
aI1
asV\u4e70
(lp793
I3
aI2
aI1
asV\u94f7
(lp794
I1
asV\u53f9
(lp795
I1
asV\u7efb
(lp796
I1
asV\u9c7c
(lp797
I2
aI1
asV\u7b7e
(lp798
I2
aI1
asV\u8680
(lp799
I1
asV\u6c07
(lp800
I1
asV\u8f86
(lp801
I1
asV\u960b
(lp802
I1
asV\u950d
(lp803
I1
asV\u548c
(lp804
I3
aI2
asV\u900f
(lp805
I2
asV\uff11
(lp806
I3
aI2
asV\u5e90
(lp807
I1
asV\u5d92
(lp808
I2
asV\u9894
(lp809
I1
asV\u9518
(lp810
I1
asV\u6298
(lp811
I4
aI3
aI2
asV\u4e1b
(lp812
I1
asV\u836e
(lp813
I1
asV\u8d1d
(lp814
I1
asV\u9721
(lp815
I1
asV\u5c27
(lp816
I1
asV\u8e70
(lp817
I1
asV\u9a9d
(lp818
I1
asV\u59aa
(lp819
I1
asV\u6db2
(lp820
I3
asV\u9f9f
(lp821
I3
aI1
asV\u72b8
(lp822
I1
asV\u9e3b
(lp823
I1
asV\u9cbc
(lp824
I1
asV\u5bbe
(lp825
I1
asV\U0002a243
(lp826
I1
asV\u6c47
(lp827
I2
aI1
asV\u964b
(lp828
I3
aI2
asV\u89ca
(lp829
I1
asV\u954d
(lp830
I1
asV\u94cc
(lp831
I1
asV\u704f
(lp832
I1
asV\u9f51
(lp833
I1
asV\u7ed0
(lp834
I1
asV\u98d4
(lp835
I1
asV\u8457
(lp836
I4
aI2
asV\u8359
(lp837
I1
asV\u62d8
(lp838
I2
asV\u8d5d
(lp839
I1
asV\u8bde
(lp840
I1
asV\u7761
(lp841
I3
aI2
asV\u56e0
(lp842
I3
aI2
asV\u9165
(lp843
I2
asV\u70e4
(lp844
I2
asV\u866b
(lp845
I2
aI1
asV\U000299ea
(lp846
I1
asV\u84ec
(lp847
I4
aI2
asV\u606f
(lp848
I4
aI2
asV\u63ee
(lp849
I3
aI2
asV\u8f71
(lp850
I1
asV\u4ef0
(lp851
I2
asV\u9893
(lp852
I1
asV\u7477
(lp853
I1
asV\u77f6
(lp854
I1
asV\u51fa
(lp855
I4
aI3
aI2
asV\u987f
(lp856
I1
asV\u8681
(lp857
I2
aI1
asV\u6700
(lp858
I2
asV\u6402
(lp859
I1
asV\u8a89
(lp860
I1
asV\u978b
(lp861
I2
asV\u680a
(lp862
I1
asV\u948d
(lp863
I1
asV\u950c
(lp864
I1
asV\u5ee2
(lp865
I2
asV\u5e91
(lp866
I1
asV\uff10
(lp867
I3
aI2
asV\u7b93
(lp868
I1
asV\u9895
(lp869
I1
asV\u6597
(lp870
I4
aI3
aI2
asV\u8616
(lp871
I1
asV\u8f9b
(lp872
I3
aI2
asV\u8c9d
(lp873
I3
aI2
asV\u532a
(lp874
I2
asV\u53a3
(lp875
I1
asV\u8d6a
(lp876
I1
asV\u50a5
(lp877
I1
asV\u8c07
(lp878
I1
asV\u5e26
(lp879
I4
aI2
aI1
asV\u7b28
(lp880
I4
asV\u67ab
(lp881
I1
asV\u9f86
(lp882
I1
asV\u64ad
(lp883
I2
asV\u6db3
(lp884
I2
asV\u8bb3
(lp885
I1
asV\u8c32
(lp886
I1
asV\u8934
(lp887
I1
asV\u55b7
(lp888
I2
aI1
asV\u9636
(lp889
I1
asV\u72b9
(lp890
I4
aI3
aI1
asV\U0002b6de
(lp891
I1
asV\u9cbd
(lp892
I1
asV\u6740
(lp893
I3
aI1
asV\u60c5
(lp894
I2
asV\u83b7
(lp895
I4
aI1
asV\u57cb
(lp896
I5
aI4
asV\u54cd
(lp897
I2
aI1
asV\u954c
(lp898
I1
asV\u51cf
(lp899
I3
aI1
asV\u948c
(lp900
I1
asV\u7ed1
(lp901
I2
aI1
asV\u9f50
(lp902
I4
aI2
aI1
asV\u5bd3
(lp903
I2
asV\u98d5
(lp904
I1
asV\u65d7
(lp905
I2
asV\u6656
(lp906
I1
asV\u62d9
(lp907
I2
asV\u8fdb
(lp908
I2
aI1
asV\u8d5c
(lp909
I1
asV\u69df
(lp910
I1
asV\u9760
(lp911
I3
aI2
asV\u53e3
(lp912
I4
aI3
aI2
asV\u5de7
(lp913
I9
aI3
aI2
asV\u9e66
(lp914
I1
asV\u62e6
(lp915
I1
asV\u656c
(lp916
I2
asV\u7b3c
(lp917
I1
asV\u8f70
(lp918
I1
asV\u8bf3
(lp919
I1
asV\u6c72
(lp920
I2
asV\u95f7
(lp921
I5
aI1
asV\u7ffb
(lp922
I4
aI2
asV\U000299ff
(lp923
I1
asV\u9a7e
(lp924
I1
asV\u70c1
(lp925
I1
asV\u8303
(lp926
I4
aI3
aI2
asV\u54ea
(lp927
I2
asV\u6005
(lp928
I1
asV\u4e86
(lp929
I4
aI3
aI2
asV\u770b
(lp930
I4
aI3
aI2
asV\u5f90
(lp931
I2
asV\u9b13
(lp932
I2
aI1
asV\u9c92
(lp933
I1
asV\u5815
(lp934
I3
aI1
asV\u9994
(lp935
I1
asV\u6ba1
(lp936
I1
asV\u4f1b
(lp937
I1
asV\u809a
(lp938
I2
asV\u8c1d
(lp939
I1
asV\u6750
(lp940
I2
asV\u8a9e
(lp941
I3
aI2
asV\u94a2
(lp942
I6
aI2
aI1
asV\u51a4
(lp943
I2
asV\u7d27
(lp944
I4
aI3
aI2
aI1
asV\u73f0
(lp945
I1
asV\u7ba8
(lp946
I1
asV\u672b
(lp947
I2
asV\u642d
(lp948
I3
aI2
asV\u9c9c
(lp949
I1
asV\u69b4
(lp950
I2
asV\u9537
(lp951
I1
asV\u8d48
(lp952
I2
aI1
asV\u5239
(lp953
I1
asV\u9f3b
(lp954
I3
aI2
asV\u90ba
(lp955
I1
asV\u5c3d
(lp956
I4
aI3
aI2
aI1
asV\U0002b5f4
(lp957
I1
asV\u7977
(lp958
I1
asV\u6d47
(lp959
I1
asV\u4ec6
(lp960
I4
aI2
asV\u8bc8
(lp961
I1
asV\u9e51
(lp962
I1
asV\u9cd2
(lp963
I1
asV\u7855
(lp964
I1
asV\u59d4
(lp965
I3
aI2
asV\u4f5b
(lp966
I4
aI2
asV\u94e2
(lp967
I1
asV\u9065
(lp968
I1
asV\u51e4
(lp969
I4
aI3
aI1
asV\u7ee6
(lp970
I1
asV\u607d
(lp971
I1
asV\u4fa6
(lp972
I1
asV\u646d
(lp973
I2
asV\u62ee
(lp974
I2
asV\u4e71
(lp975
I5
aI2
aI1
asV\u5577
(lp976
I2
asV\U0002b6f6
(lp977
I1
asV\u7279
(lp978
I3
aI2
asV\U00029f7b
(lp979
I1
asV\u76fe
(lp980
I3
aI2
asV\u9c7d
(lp981
I1
asV\u997f
(lp982
I1
asV\u8981
(lp983
I3
aI2
asV\u6800
(lp984
I1
asV\u6c83
(lp985
I3
asV\u9e7e
(lp986
I1
asV\u8f85
(lp987
I1
asV\u988b
(lp988
I1
asV\u8056
(lp989
I10
aI8
aI4
asV\U00029a0c
(lp990
I1
asV\u7e8f
(lp991
I3
aI2
asV\u54ac
(lp992
I4
asV\u94d9
(lp993
I1
asV\u9493
(lp994
I1
asV\u7f02
(lp995
I1
asV\u9614
(lp996
I1
asV\u8c18
(lp997
I1
asV\u4f1a
(lp998
I4
aI3
aI2
aI1
asV\u5a04
(lp999
I1
asV\u5f31
(lp1000
I8
aI2
asV\u9ca3
(lp1001
I1
asV\u865a
(lp1002
I1
asV\u9e24
(lp1003
I1
asV\u5428
(lp1004
I1
asV\u88ab
(lp1005
I4
aI3
aI2
asV\u9506
(lp1006
I1
asV\u8bad
(lp1007
I1
asV\u8eaf
(lp1008
I2
aI1
asV\u8d2e
(lp1009
I1
asV0
(lp1010
I3
aI2
asV\u5c38
(lp1011
I4
aI3
aI2
aI1
asV\u50bb
(lp1012
I4
asV\u5f3a
(lp1013
I4
aI2
aI1
asV\u953e
(lp1014
I1
asV\u89c1
(lp1015
I4
aI2
aI1
asV\u8840
(lp1016
I2
asV\u82c7
(lp1017
I1
asV\u85c9
(lp1018
I2
asV\u6448
(lp1019
I1
asV\u9ecf
(lp1020
I3
aI2
asV\u6e0c
(lp1021
I1
asV\u51d1
(lp1022
I3
aI1
asV\u94d3
(lp1023
I1
asV\u9531
(lp1024
I1
asV\u5e3b
(lp1025
I1
asV\u655e
(lp1026
I3
aI2
asV\u7591
(lp1027
I3
aI2
asV\u9ce3
(lp1028
I1
asV\u9e64
(lp1029
I2
aI1
asV\U0002b410
(lp1030
I1
asV\U00029f84
(lp1031
I1
asV\u5468
(lp1032
I4
aI3
aI2
asV\u68eb
(lp1033
I2
asV\u8bed
(lp1034
I3
aI2
aI1
asV\u6d6e
(lp1035
I3
aI2
asV\u7a06
(lp1036
I1
asV\u6070
(lp1037
I2
asV\u9976
(lp1038
I1
asV\U00029f7a
(lp1039
I1
asV\U000293fd
(lp1040
I1
asV\u36ff
(lp1041
I1
asV\u6901
(lp1042
I1
asV\u8c03
(lp1043
I3
aI2
aI1
asV\u6361
(lp1044
I1
asV\u5e97
(lp1045
I2
asV\u8207
(lp1046
I3
aI2
asV\U0002980b
(lp1047
I1
asV\u9a8c
(lp1048
I1
asV\u5e0f
(lp1049
I1
asV\u763f
(lp1050
I1
asV\u5999
(lp1051
I2
asV\u5413
(lp1052
I1
asV\u9694
(lp1053
I3
aI2
asV\U0002aa17
(lp1054
I1
asV\u8996
(lp1055
I4
asV\u4d19
(lp1056
I1
asV\u8f9a
(lp1057
I1
asV\u631d
(lp1058
I1
asV\u949b
(lp1059
I1
asV\u661f
(lp1060
I3
aI2
asV\u7eea
(lp1061
I2
aI1
asV\u98a0
(lp1062
I4
aI2
aI1
asV\u5f25
(lp1063
I4
aI3
aI2
aI1
asV\u7ea4
(lp1064
I2
aI1
asV\u9529
(lp1065
I1
asV\U0002a79d
(lp1066
I1
asV\u77aa
(lp1067
I3
aI2
asV\u6df3
(lp1068
I2
asV\u6e2f
(lp1069
I2
asV\u8131
(lp1070
I3
aI2
aI1
asV\u7b49
(lp1071
I2
asV\u83b2
(lp1072
I1
asV\u66b4
(lp1073
I4
aI2
asV\u56fe
(lp1074
I2
aI1
asV\u9cb8
(lp1075
I2
aI1
asV\u903b
(lp1076
I1
asV\u963f
(lp1077
I8
aI6
aI3
aI2
asV\u55be
(lp1078
I1
asV\u68c0
(lp1079
I1
asV\U00028c43
(lp1080
I1
asV\u6bc2
(lp1081
I1
asV\u9acc
(lp1082
I1
asV\u9e4f
(lp1083
I1
asV\u5151
(lp1084
I1
asV\u90d0
(lp1085
I1
asV\u5453
(lp1086
I1
asV\u6eea
(lp1087
I1
asV\u8d59
(lp1088
I1
asV\u94e5
(lp1089
I1
asV\u635d
(lp1090
I1
asV\u62dc
(lp1091
I2
asV\u7f51
(lp1092
I2
aI1
asV\u7ee4
(lp1093
I1
asV\u5267
(lp1094
I2
aI1
asV\u9569
(lp1095
I1
asV\u94e8
(lp1096
I1
asV\u97ea
(lp1097
I1
asV\u66f4
(lp1098
I4
aI2
asV\u9a77
(lp1099
I1
asV\U000299f6
(lp1100
I1
asV\U00029f8c
(lp1101
I1
asV\u507b
(lp1102
I1
asV\u724d
(lp1103
I1
asV\u95fe
(lp1104
I1
asV\u6881
(lp1105
I4
aI2
asV\u6001
(lp1106
I1
asV\u6a02
(lp1107
I3
aI2
asV\u6e85
(lp1108
I1
asV\u6006
(lp1109
I1
asV\u8489
(lp1110
I1
asV\u998b
(lp1111
I1
asV\u660a
(lp1112
I4
asV\u7a8d
(lp1113
I1
asV\u8e2c
(lp1114
I1
asV\u5212
(lp1115
I4
aI3
aI2
asV\U0002b695
(lp1116
I1
asV\u6816
(lp1117
I4
aI1
asV\u6c99
(lp1118
I6
aI5
aI4
asV\u7605
(lp1119
I1
asV\u4e1a
(lp1120
I2
aI1
asV\u631c
(lp1121
I1
asV\u7784
(lp1122
I2
asV\u98a1
(lp1123
I1
asV\u7ea5
(lp1124
I1
asV\u7f24
(lp1125
I1
asV\u9026
(lp1126
I1
asV\u94a9
(lp1127
I4
aI1
asV\u9528
(lp1128
I1
asV\u762a
(lp1129
I1
asV\u8c2e
(lp1130
I1
asV\u6232
(lp1131
I2
asV\u6734
(lp1132
I3
aI2
asV\u9cb9
(lp1133
I1
asV\u51bb
(lp1134
I1
asV\u9e3a
(lp1135
I1
asV\u543e
(lp1136
I7
asV\u88c1
(lp1137
I2
asV\u8dc3
(lp1138
I1
asV\u4ec5
(lp1139
I1
asV\u5eb7
(lp1140
I4
aI3
aI2
asV\u4981
(lp1141
I1
asV\u96e0
(lp1142
I1
asV\u79cb
(lp1143
I5
aI3
aI2
asV\u464a
(lp1144
I1
asV\u5fcf
(lp1145
I1
asV\u638c
(lp1146
I2
asV\u90d1
(lp1147
I3
aI1
asV\u96d5
(lp1148
I4
aI2
asV\u8bd7
(lp1149
I2
aI1
asV\u8d58
(lp1150
I1
asV\u748e
(lp1151
I1
asV\u835c
(lp1152
I1
asV\u5a62
(lp1153
I2
asV\u7ee5
(lp1154
I1
asV\u9990
(lp1155
I1
asV\U0002b4e9
(lp1156
I1
asV\u9568
(lp1157
I1
asV\u4e8f
(lp1158
I1
asV\u966a
(lp1159
I3
aI2
asV\u4fef
(lp1160
I2
asV\u8c6e
(lp1161
I1
asV\u8170
(lp1162
I2
asV\u8272
(lp1163
I2
asV\u9876
(lp1164
I2
aI1
asV\u51fb
(lp1165
I2
aI1
asV\u766b
(lp1166
I1
asV\u97ff
(lp1167
I3
aI2
asV\u8801
(lp1168
I2
asV\u4980
(lp1169
I1
asV\u6e05
(lp1170
I4
asV\u8f84
(lp1171
I1
asV\u6307
(lp1172
I4
asV\u956d
(lp1173
I1
asV\u7f12
(lp1174
I1
asV\u868a
(lp1175
I4
asV\U00029a0d
(lp1176
I1
asV\u7f0f
(lp1177
I1
asV\u9c8e
(lp1178
I1
asV\u9513
(lp1179
I1
asV\u9615
(lp1180
I1
asV\u8896
(lp1181
I2
asV\u8c19
(lp1182
I1
asV\u8bc5
(lp1183
I1
asV\u611b
(lp1184
I3
aI2
asV\u4e9a
(lp1185
I5
aI2
aI1
asV\u649e
(lp1186
I4
aI3
aI2
asV\u9ed1
(lp1187
I5
aI2
asV\u9aa2
(lp1188
I1
asV\u9e25
(lp1189
I1
asV\u7fa4
(lp1190
I2
asV\u9546
(lp1191
I1
asV\u8bac
(lp1192
I1
asV\u5b9c
(lp1193
I2
asV1
(lp1194
I3
aI2
asV\u91c9
(lp1195
I2
asV\u7f1f
(lp1196
I1
asV\u5b37
(lp1197
I1
asV\u7eba
(lp1198
I1
asV\u523d
(lp1199
I1
asV\u9ccb
(lp1200
I1
asV\u94be
(lp1201
I1
asV\u6d43
(lp1202
I1
asV\u4fc4
(lp1203
I2
asV\u80c6
(lp1204
I1
asV\u8449
(lp1205
I2
asV\u594b
(lp1206
I2
aI1
asV\u97f6
(lp1207
I3
asV\u5bcc
(lp1208
I2
asV\u9cce
(lp1209
I1
asV\u9553
(lp1210
I1
asV\u52a2
(lp1211
I1
asV\u9655
(lp1212
I1
asV\u57d4
(lp1213
I6
asV\u6eda
(lp1214
I1
asV\u83dc
(lp1215
I2
asV\u675f
(lp1216
I2
asV\u64de
(lp1217
I1
asV\u603c
(lp1218
I1
asV\u9e65
(lp1219
I1
asV\u5367
(lp1220
I2
asV\u90e6
(lp1221
I1
asV\u3469
(lp1222
I1
asV\u75e8
(lp1223
I1
asV\u8df8
(lp1224
I1
asV\u96ea
(lp1225
I4
aI3
aI2
asV\u8bec
(lp1226
I2
aI1
asV\u8f6f
(lp1227
I1
asV\u8c29
(lp1228
I1
asV\u58f6
(lp1229
I2
aI1
asV\u517b
(lp1230
I1
asV\u7efa
(lp1231
I1
asV\u727d
(lp1232
I3
aI2
asV\U000293fc
(lp1233
I1
asV\u94fe
(lp1234
I1
asV\u6b81
(lp1235
I1
asV\u8a00
(lp1236
I4
aI2
asV\u6e83
(lp1237
I2
aI1
asV\u8d85
(lp1238
I3
asV\u8c04
(lp1239
I1
asV\u522d
(lp1240
I1
asV\u9a8b
(lp1241
I1
asV\u998d
(lp1242
I1
asV\U0002980c
(lp1243
I1
asV\u9c8f
(lp1244
I1
asV\u7f0e
(lp1245
I1
asV\u7391
(lp1246
I1
asV\u7693
(lp1247
I2
asV\u5112
(lp1248
I6
aI5
aI4
aI3
asV\U00029595
(lp1249
I1
asV\u8f99
(lp1250
I1
asV\u629b
(lp1251
I1
asV\u201c
(lp1252
I1
asV\u7ba1
(lp1253
I6
aI3
aI2
asV\u7ea3
(lp1254
I1
asV\u5922
(lp1255
I3
aI2
asV\u50a7
(lp1256
I1
asV\u5326
(lp1257
I1
asV\u77a9
(lp1258
I2
aI1
asV\U0002b628
(lp1259
I1
asV\u952a
(lp1260
I1
asV\u565c
(lp1261
I2
aI1
asV\u83b1
(lp1262
I1
asV\u6230
(lp1263
I3
aI2
asV\u9e38
(lp1264
I1
asV\u903c
(lp1265
I3
aI2
asV\u94bf
(lp1266
I1
asV\u6bc1
(lp1267
I4
aI2
aI1
asV\u6ec3
(lp1268
I2
asV\U00028c44
(lp1269
I1
asV\u60c7
(lp1270
I2
asV\u6346
(lp1271
I3
aI2
asV\u519c
(lp1272
I4
aI3
aI2
aI1
asV\u9acb
(lp1273
I1
asV\u79cd
(lp1274
I3
aI2
aI1
asV\u9ccf
(lp1275
I1
asV\u53d1
(lp1276
I5
aI4
aI3
aI2
aI1
asV\u5250
(lp1277
I1
asV\u9152
(lp1278
I4
aI2
asV\u75d5
(lp1279
I2
asV\u8fd9
(lp1280
I3
aI2
aI1
asV\u4e58
(lp1281
I3
aI2
asV\u8d5a
(lp1282
I1
asV\U000299fb
(lp1283
I1
asV\u84df
(lp1284
I1
asV\u675e
(lp1285
I4
asV\u5be1
(lp1286
I2
asV\u7ee3
(lp1287
I2
aI1
asV\u7962
(lp1288
I1
asV\u5de5
(lp1289
I2
asV\u90e7
(lp1290
I1
asV\u97e9
(lp1291
I3
aI2
aI1
asV\u9668
(lp1292
I1
asV\u956a
(lp1293
I1
asV\u886c
(lp1294
I2
aI1
asV\u8f6e
(lp1295
I2
aI1
asV\u8270
(lp1296
I1
asV\u86f3
(lp1297
I1
asV\u5e78
(lp1298
I4
aI3
aI2
asV\u9cbe
(lp1299
I1
asV\u94ff
(lp1300
I1
asV\u4e03
(lp1301
I4
aI3
aI2
asV\U00029597
(lp1302
I1
asV\u51c0
(lp1303
I2
aI1
asV\u6709
(lp1304
I5
aI4
aI3
aI2
asV\U00029a0b
(lp1305
I1
asV\u590d
(lp1306
I4
aI3
aI2
aI1
asV\u988c
(lp1307
I1
asV\u5c0f
(lp1308
I5
aI4
aI3
aI2
asV\u7f8e
(lp1309
I3
aI2
asV\u9613
(lp1310
I1
asV\u5192
(lp1311
I3
aI2
asV\u9515
(lp1312
I1
asV\u9494
(lp1313
I1
asV\u6817
(lp1314
I2
asV\u6b96
(lp1315
I2
asV\u4f19
(lp1316
I2
asV\u8e2a
(lp1317
I1
asV\u996e
(lp1318
I1
asV\u4f9b
(lp1319
I2
asV\u679e
(lp1320
I1
asV\u9aa0
(lp1321
I1
asV\u9e23
(lp1322
I2
aI1
asV\u7ca4
(lp1323
I1
asV\u53a6
(lp1324
I1
asV\u96a8
(lp1325
I3
aI2
asV\u692d
(lp1326
I1
asV\u8c2f
(lp1327
I1
asV\u6c49
(lp1328
I7
aI4
aI1
asV\u3c6e
(lp1329
I1
asV\u5bb6
(lp1330
I5
aI3
aI2
asV\u5f39
(lp1331
I3
aI2
aI1
asV\u9eb8
(lp1332
I1
asV\u523b
(lp1333
I3
aI2
asV\u70bc
(lp1334
I3
aI2
aI1
asV\u5efa
(lp1335
I2
asV\u89c2
(lp1336
I2
aI1
asV\u8d45
(lp1337
I1
asV\u6cc4
(lp1338
I2
asV\u988d
(lp1339
I1
asV\u8749
(lp1340
I1
asV\U0002a24d
(lp1341
I1
asV\u5c4f
(lp1342
I3
asV\u72d0
(lp1343
I4
asV\u71d2
(lp1344
I3
aI2
asV\u9555
(lp1345
I1
asV\u54d4
(lp1346
I1
asV\u8bd6
(lp1347
I1
asV\u4f59
(lp1348
I4
aI3
aI2
asV\u4ed8
(lp1349
I2
asV\u625b
(lp1350
I3
aI2
asV\u80dc
(lp1351
I2
aI1
asV\u645f
(lp1352
I3
aI2
asV\u9e63
(lp1353
I1
asV\u5ce4
(lp1354
I1
asV\u53e6
(lp1355
I2
asV\u75ea
(lp1356
I1
asV\u8d53
(lp1357
I1
asV\u4fee
(lp1358
I3
aI2
asV\u41f2
(lp1359
I1
asV\u9877
(lp1360
I1
asV\u5bf6
(lp1361
I2
asV\U00029f79
(lp1362
I1
asV\u7ef8
(lp1363
I3
aI1
asV\u917e
(lp1364
I1
asV\u517d
(lp1365
I2
aI1
asV\u77fe
(lp1366
I1
asV\u8f83
(lp1367
I2
aI1
asV\u6d04
(lp1368
I2
asV\u6206
(lp1369
I1
asV\u6708
(lp1370
I4
aI3
aI2
asV\u788d
(lp1371
I4
aI1
asV\u9012
(lp1372
I2
aI1
asV\u5495
(lp1373
I3
asV\u9514
(lp1374
I1
asV\u4f18
(lp1375
I2
aI1
asV\u639b
(lp1376
I2
asV\u8c1a
(lp1377
I1
asV\u809d
(lp1378
I2
asV\u9aa1
(lp1379
I1
asV\u9ca5
(lp1380
I1
asV\u5728
(lp1381
I3
aI2
asV\u8bab
(lp1382
I1
asV\u88ad
(lp1383
I1
asV\u82b1
(lp1384
I4
aI3
aI2
asV2
(lp1385
I3
aI2
asV\u64b5
(lp1386
I1
asV\u7eb9
(lp1387
I1
asV\u53bb
(lp1388
I3
aI2
asV\u70bd
(lp1389
I1
asV\u763e
(lp1390
I1
asV\u6842
(lp1391
I3
asV\u8d44
(lp1392
I4
aI1
asV\U0002a246
(lp1393
I1
asV\u7f0d
(lp1394
I1
asV\u644a
(lp1395
I1
asV\u9e4e
(lp1396
I1
asV\u54d5
(lp1397
I1
asV\u9554
(lp1398
I1
asV\u4ed9
(lp1399
I2
asV\u665e
(lp1400
I2
asV\u9ae1
(lp1401
I2
asV\u503a
(lp1402
I1
asV\u5ce5
(lp1403
I1
asV\u7266
(lp1404
I1
asV\u5cbd
(lp1405
I1
asV\u6beb
(lp1406
I2
asV\u9e5e
(lp1407
I1
asV\u8def
(lp1408
I2
asV\u6e6e
(lp1409
I2
asV\u82f1
(lp1410
I2
asV\u67f3
(lp1411
I3
asV\u5792
(lp1412
I1
asV\u6574
(lp1413
I4
aI3
aI2
asV\u5a76
(lp1414
I1
asV\u7ef9
(lp1415
I1
asV\u90fd
(lp1416
I2
asV\u517c
(lp1417
I2
asV\u95ff
(lp1418
I1
asV\u767e
(lp1419
I4
aI3
aI2
asV\u5eea
(lp1420
I1
asV\u8c05
(lp1421
I1
asV\u7b0b
(lp1422
I2
aI1
asV\u998c
(lp1423
I1
asV\u5211
(lp1424
I2
asV\u5390
(lp1425
I1
asV\u7092
(lp1426
I2
asV\u5415
(lp1427
I2
aI1
asV\u8f98
(lp1428
I1
asV\u631b
(lp1429
I1
asV\u94ee
(lp1430
I1
asV\u201d
(lp1431
I1
asV\u5ba0
(lp1432
I1
asV\u7f23
(lp1433
I1
asV\u98a2
(lp1434
I1
asV\u9502
(lp1435
I1
asV\U000299f0
(lp1436
I1
asV\u94aa
(lp1437
I1
asV\ue82d
(lp1438
I1
asV\u8d2f
(lp1439
I1
asV\u4eae
(lp1440
I3
aI2
asV\u8231
(lp1441
I1
asV\u60b2
(lp1442
I2
asV\u85b4
(lp1443
I2
asV\u9e39
(lp1444
I1
asV\u533b
(lp1445
I3
aI2
aI1
asV\u9cba
(lp1446
I1
asV\u953f
(lp1447
I1
asV\u96be
(lp1448
I2
aI1
asV\u8bc0
(lp1449
I1
asV\u68c2
(lp1450
I1
asV\U00028c45
(lp1451
I1
asV\u8dc4
(lp1452
I1
asV\u691f
(lp1453
I1
asV\u62c6
(lp1454
I2
asV\u94cd
(lp1455
I1
asV\u84ca
(lp1456
I2
asV\u7ece
(lp1457
I1
asV\u5251
(lp1458
I1
asV\u73d0
(lp1459
I1
asV\u9753
(lp1460
I1
asV\u5455
(lp1461
I1
asV\u7ea6
(lp1462
I2
aI1
asV\u4e59
(lp1463
I2
asV\u8fd8
(lp1464
I2
aI1
asV\u835b
(lp1465
I1
asV\u624e
(lp1466
I4
aI3
aI2
asV\u81dc
(lp1467
I1
asV\u6ed1
(lp1468
I2
asV\u7167
(lp1469
I4
aI3
aI2
asV\u95ea
(lp1470
I1
asV\U00029669
(lp1471
I1
asV\u97e8
(lp1472
I1
asV\u94ea
(lp1473
I1
asV\u7bd3
(lp1474
I1
asV\u8bfc
(lp1475
I1
asV\U00029f7f
(lp1476
I1
asV\u9977
(lp1477
I1
asV\u5e79
(lp1478
I2
asV\u957f
(lp1479
I3
aI2
aI1
asV\u96fe
(lp1480
I2
aI1
asV\u8c00
(lp1481
I1
asV\u6f02
(lp1482
I2
asV\u9c8b
(lp1483
I1
asV\u5e0c
(lp1484
I5
aI4
aI3
asV\u9a8f
(lp1485
I1
asV\u9591
(lp1486
I3
aI2
asV\u5410
(lp1487
I4
aI3
asV\u9093
(lp1488
I1
asV\u5395
(lp1489
I1
asV\u4d16
(lp1490
I1
asV\u96b6
(lp1491
I1
asV\u679d
(lp1492
I6
aI2
asV\u75eb
(lp1493
I1
asV\u629f
(lp1494
I1
asV\U0002b404
(lp1495
I1
asV\u5531
(lp1496
I3
aI2
asV\u7f22
(lp1497
I1
asV\u9526
(lp1498
I4
aI2
aI1
asV\u732a
(lp1499
I1
asV\u8033
(lp1500
I2
asV\u9ea6
(lp1501
I1
asV\u6234
(lp1502
I4
aI3
aI2
asV\u7eb7
(lp1503
I1
asV\u96f6
(lp1504
I3
aI2
asV\u79b9
(lp1505
I3
asV\u94bb
(lp1506
I1
asV\u7b3a
(lp1507
I1
asV\u52bf
(lp1508
I1
asV\U00028c40
(lp1509
I1
asV\u4bc5
(lp1510
I1
asV\u4a44
(lp1511
I1
asV\u86c7
(lp1512
I4
asV\u5760
(lp1513
I1
asV\u61c9
(lp1514
I3
aI2
asV\u94c0
(lp1515
I1
asV\u5fcd
(lp1516
I3
aI2
asV\u9e4c
(lp1517
I1
asV\u794e
(lp1518
I1
asV\u55d1
(lp1519
I2
asV\u5450
(lp1520
I1
asV\u90d3
(lp1521
I1
asV\u9752
(lp1522
I4
aI3
aI2
asV\u5254
(lp1523
I3
asV\u4ed7
(lp1524
I3
aI2
asV\u8d56
(lp1525
I1
asV\u62df
(lp1526
I1
asV\u5de1
(lp1527
I4
aI2
asV\u7f62
(lp1528
I2
aI1
asV\u76e7
(lp1529
I3
asV\u9566
(lp1530
I1
asV\u9068
(lp1531
I2
asV\u4fed
(lp1532
I4
aI2
aI1
asV\u65f1
(lp1533
I2
asV\u60f3
(lp1534
I3
aI2
asV\u73f2
(lp1535
I1
asV\u7ef7
(lp1536
I4
aI3
aI2
aI1
asV\u59f9
(lp1537
I1
asV\u9878
(lp1538
I1
asV\u94fb
(lp1539
I1
asV\u77fd
(lp1540
I2
asV\u767c
(lp1541
I2
asV\u6c14
(lp1542
I4
aI2
aI1
asV\u6d01
(lp1543
I1
asV\u6d41
(lp1544
I4
aI3
aI2
asV\u8f82
(lp1545
I1
asV\u8109
(lp1546
I2
aI1
asV\u54ed
(lp1547
I3
aI2
asV\u5c0b
(lp1548
I3
aI2
asV\U0002a38a
(lp1549
I1
asV\u9f0d
(lp1550
I1
asV\U00029a0f
(lp1551
I1
asV\u998e
(lp1552
I1
asV\u9511
(lp1553
I1
asV\u9490
(lp1554
I1
asV\u9792
(lp1555
I1
asV\u7315
(lp1556
I1
asV\u6e17
(lp1557
I1
asV\u7618
(lp1558
I1
asV\u6b9a
(lp1559
I1
asV\u671d
(lp1560
I4
aI3
aI2
asV\u9ca0
(lp1561
I1
asV\u951a
(lp1562
I1
asV\u9b25
(lp1563
I3
aI2
asV\u9aa4
(lp1564
I1
asV\u97f3
(lp1565
I4
aI2
asV\u50a8
(lp1566
I1
asV\u8c2b
(lp1567
I1
asV\u6a2f
(lp1568
I1
asV\u4ca1
(lp1569
I1
asV3
(lp1570
I3
aI2
asV\u6c9f
(lp1571
I1
asV\u9e37
(lp1572
I1
asV\u3db6
(lp1573
I1
asV\u5939
(lp1574
I1
asV\u56bc
(lp1575
I2
asV\u523f
(lp1576
I1
asV\u5974
(lp1577
I2
asV\u8d41
(lp1578
I1
asV\u9ee1
(lp1579
I1
asV\u8fc2
(lp1580
I2
asV\u4149
(lp1581
I1
asV\u6f4d
(lp1582
I1
asV\u5c4b
(lp1583
I3
aI2
asV\u7ecc
(lp1584
I1
asV\u9551
(lp1585
I1
asV\u94d0
(lp1586
I1
asV\u9053
(lp1587
I2
asV\u5355
(lp1588
I4
aI3
aI2
aI1
asV\u845b
(lp1589
I2
asV\u8bda
(lp1590
I2
aI1
asV\u8424
(lp1591
I1
asV\u9ce0
(lp1592
I1
asV\u86f0
(lp1593
I1
asV\u9667
(lp1594
I1
asV\U0002b5e6
(lp1595
I1
asV\u90e8
(lp1596
I3
asV\u8c6b
(lp1597
I3
aI2
asV\u53ea
(lp1598
I5
aI4
aI3
aI2
asV\u8f6d
(lp1599
I1
asV\u4eec
(lp1600
I4
aI3
aI1
asV\u4fa9
(lp1601
I1
asV\u6073
(lp1602
I2
aI1
asV\u6375
(lp1603
I2
asV\u9979
(lp1604
I1
asV\u58f8
(lp1605
I2
aI1
asV\u5bfa
(lp1606
I2
asV\u5f11
(lp1607
I1
asV\u4983
(lp1608
I1
asV\U00028e02
(lp1609
I1
asV\u8780
(lp1610
I1
asV\u8089
(lp1611
I3
aI2
asV\u6108
(lp1612
I2
asV\u3e8d
(lp1613
I1
asV\uff0c
(lp1614
I3
asV\u5b8f
(lp1615
I4
asV\u9491
(lp1616
I1
asV\u9510
(lp1617
I1
asV\u9612
(lp1618
I1
asV\u94af
(lp1619
I1
asV\u8f97
(lp1620
I1
asV\u8c16
(lp1621
I1
asV\u8a1a
(lp1622
I1
asV\u871c
(lp1623
I4
asV\u9ca1
(lp1624
I1
asV\u7d20
(lp1625
I2
asV\u9e22
(lp1626
I1
asV\u9aa5
(lp1627
I1
asV\u77a7
(lp1628
I4
aI3
asV\u50a9
(lp1629
I1
asV\U0002b128
(lp1630
I1
asV\u6e86
(lp1631
I1
asV\u8baf
(lp1632
I1
asV\u62b5
(lp1633
I2
asV\u90ae
(lp1634
I1
asV\u5fb7
(lp1635
I2
asV\u5938
(lp1636
I4
aI2
aI1
asV\u80e8
(lp1637
I1
asV\u96bd
(lp1638
I1
asV\u773c
(lp1639
I3
aI2
asV\u53bf
(lp1640
I2
aI1
asV\u8c34
(lp1641
I1
asV\u8d40
(lp1642
I1
asV\u89c3
(lp1643
I1
asV\u6446
(lp1644
I2
aI1
asV\U0002a24a
(lp1645
I1
asV\u7ecd
(lp1646
I1
asV\u6863
(lp1647
I1
asV\u54d1
(lp1648
I1
asV\u9550
(lp1649
I1
asV\u52d5
(lp1650
I3
aI2
asV\u610f
(lp1651
I4
aI3
aI2
asV\u66dd
(lp1652
I2
asV\u675c
(lp1653
I4
asV\u805e
(lp1654
I3
aI2
asV\u5ce1
(lp1655
I1
asV\u6e11
(lp1656
I1
asV\u9e62
(lp1657
I1
asV\u7ae5
(lp1658
I2
asV\u5b64
(lp1659
I4
aI3
aI2
asV\u97e7
(lp1660
I1
asV\u70e9
(lp1661
I1
asV\u5168
(lp1662
I4
aI2
asV\u6deb
(lp1663
I2
asV\u526a
(lp1664
I5
aI3
aI2
asV\u8f6c
(lp1665
I4
aI3
aI2
aI1
asV\u8bef
(lp1666
I1
asV\u886e
(lp1667
I1
asV\u6570
(lp1668
I4
aI3
aI1
asV\u81f3
(lp1669
I2
asV\u6f84
(lp1670
I4
asV\u3cbf
(lp1671
I1
asV\u70e8
(lp1672
I1
asV\u58f9
(lp1673
I2
asV\u5978
(lp1674
I4
aI2
asV\u95fb
(lp1675
I3
aI1
asV\u7a7a
(lp1676
I4
aI3
aI2
asV\u56fd
(lp1677
I4
aI3
aI2
aI1
asV\U000293ff
(lp1678
I1
asV\u707e
(lp1679
I1
asV\u8c01
(lp1680
I3
aI1
asV\u796d
(lp1681
I3
aI2
asV\u6f6d
(lp1682
I2
asV\u9f8c
(lp1683
I1
asV\u988e
(lp1684
I1
asV\u5411
(lp1685
I3
aI2
asV\U0002b692
(lp1686
I1
asV\u4f17
(lp1687
I1
asV\u75c5
(lp1688
I2
asV\u679c
(lp1689
I3
aI2
asV\u631f
(lp1690
I1
asV\u7c21
(lp1691
I2
asV\u7ea2
(lp1692
I4
aI3
aI2
aI1
asV\u94a6
(lp1693
I1
asV\u8d2b
(lp1694
I1
asV\u52aa
(lp1695
I4
aI3
aI2
asV\u4e2d
(lp1696
I10
aI5
aI4
aI3
aI2
asV\u4fac
(lp1697
I1
asV\U0002a8ae
(lp1698
I1
asV\u65b0
(lp1699
I5
aI3
aI2
asV\u83b4
(lp1700
I1
asV\u9cb6
(lp1701
I1
asV\u953b
(lp1702
I3
aI1
asV\u533f
(lp1703
I2
asV\U00028c41
(lp1704
I1
asV\u6dc0
(lp1705
I6
aI4
aI3
aI2
asV\u6d4a
(lp1706
I1
asV\u8bc4
(lp1707
I3
aI2
aI1
asV\u8747
(lp1708
I1
asV\u61c8
(lp1709
I2
asV\u5e42
(lp1710
I1
asV\u9e4d
(lp1711
I1
asV\u9b4f
(lp1712
I2
asV\u98ce
(lp1713
I4
aI3
aI2
aI1
asV\u5979
(lp1714
I3
asV\u76d2
(lp1715
I2
asV\u655b
(lp1716
I1
asV\u674e
(lp1717
I3
asV\u67dc
(lp1718
I2
aI1
asV\u635f
(lp1719
I2
aI1
asV\u5c61
(lp1720
I4
aI1
asV\u9963
(lp1721
I1
asV\u7ee2
(lp1722
I1
asV\u94e6
(lp1723
I1
asV\u92ea
(lp1724
I3
aI2
asV\u8e6d
(lp1725
I3
asV\u8748
(lp1726
I1
asV\u68ee
(lp1727
I3
asV\u8471
(lp1728
I2
aI1
asV\u66f2
(lp1729
I3
aI2
asV\u8ba8
(lp1730
I1
asV\u9879
(lp1731
I2
aI1
asV\u767d
(lp1732
I4
aI3
aI2
asV\u8f81
(lp1733
I1
asV\u4e00
(lp1734
I5
aI4
aI3
aI2
asV\u6985
(lp1735
I1
asV\u6487
(lp1736
I2
asV\U0002a389
(lp1737
I1
asV\u810a
(lp1738
I3
aI2
asV\u988f
(lp1739
I1
asV\u75ac
(lp1740
I1
asV\u9791
(lp1741
I1
asV\u9610
(lp1742
I1
asV\u9512
(lp1743
I1
asV\u8a18
(lp1744
I3
aI2
asV\u859d
(lp1745
I2
asV\u631e
(lp1746
I1
asV\u5fa1
(lp1747
I2
asV\u9e20
(lp1748
I4
aI1
asV\u9aa3
(lp1749
I1
asV\u7d22
(lp1750
I5
aI4
aI3
aI2
asV\u94a7
(lp1751
I1
asV\u7726
(lp1752
I1
asV\u53a9
(lp1753
I1
asV\u8eab
(lp1754
I4
aI3
aI2
asV\U0002b406
(lp1755
I1
asV\u8c2c
(lp1756
I4
aI2
aI1
asV\u68af
(lp1757
I2
asV4
(lp1758
I3
aI2
asV\u9cb7
(lp1759
I1
asV\u5bb9
(lp1760
I2
asV\u593a
(lp1761
I2
aI1
asV\u55bd
(lp1762
I1
asV\u743c
(lp1763
I1
asV\u91ca
(lp1764
I1
asV\u933e
(lp1765
I1
asV\u8fc1
(lp1766
I2
aI1
asV\u8d42
(lp1767
I1
asV\u89c5
(lp1768
I1
asV\u7537
(lp1769
I3
aI2
asV\u6746
(lp1770
I2
aI1
asV\u63c9
(lp1771
I3
aI2
asV\U0002a248
(lp1772
I1
asV\u7ecb
(lp1773
I1
asV\u814a
(lp1774
I5
aI2
aI1
asV\u98cf
(lp1775
I1
asV\u7f0c
(lp1776
I1
asV\u9650
(lp1777
I2
asV\u5987
(lp1778
I1
asV\u9552
(lp1779
I1
asV\u71d5
(lp1780
I4
aI2
asV\u9054
(lp1781
I3
aI2
asV\u63b8
(lp1782
I1
asV\u6bd9
(lp1783
I1
asV\u4f7f
(lp1784
I3
asV\u695a
(lp1785
I4
aI3
asV\u85dd
(lp1786
I3
aI2
asV\u635e
(lp1787
I2
aI1
asV\u9e60
(lp1788
I1
asV\u9e31
(lp1789
I1
asV\u94e7
(lp1790
I1
asV\u5766
(lp1791
I4
aI3
aI2
asV\u53e9
(lp1792
I2
asV\u6bb4
(lp1793
I2
aI1
asV\u8b66
(lp1794
I3
aI2
asV\u67f1
(lp1795
I2
asV\u8fe9
(lp1796
I1
asV\u6572
(lp1797
I2
asV\u95f2
(lp1798
I4
aI2
aI1
asV\u5bf9
(lp1799
I4
aI3
aI2
aI1
asV\u9a78
(lp1800
I1
asV\u997a
(lp1801
I1
asV\u95fd
(lp1802
I1
asV\u547c
(lp1803
I2
asV\u4f01
(lp1804
I2
asV\u6d82
(lp1805
I3
aI2
aI1
asV\u8884
(lp1806
I1
asV\u556c
(lp1807
I1
asV\u8288
(lp1808
I1
asV\u9c8c
(lp1809
I1
asV\u9690
(lp1810
I2
aI1
asV\u7115
(lp1811
I1
asV\u74ef
(lp1812
I1
asV\u8c17
(lp1813
I1
asV\u8f96
(lp1814
I1
asV\u7f19
(lp1815
I1
asV\u461b
(lp1816
I1
asV\u849c
(lp1817
I2
asV\u7f21
(lp1818
I1
asV\u7ea0
(lp1819
I1
asV\u7a23
(lp1820
I1
asV\u8d47
(lp1821
I1
asV\u57a6
(lp1822
I2
aI1
asV\u52a8
(lp1823
I2
aI1
asV\u8d2d
(lp1824
I3
aI2
aI1
asV\u8bae
(lp1825
I1
asV\u6731
(lp1826
I5
aI4
aI3
aI2
asV\u65b2
(lp1827
I4
asV\u80b4
(lp1828
I2
aI1
asV\u963b
(lp1829
I2
asV\u953d
(lp1830
I1
asV\u94bc
(lp1831
I1
asV\u4ec0
(lp1832
I3
aI2
asV\u6447
(lp1833
I4
aI2
aI1
asV\u8349
(lp1834
I3
aI2
asV\u82c8
(lp1835
I1
asV\u9e4b
(lp1836
I1
asV\u9ccc
(lp1837
I1
asV\u5751
(lp1838
I2
asV\u76d0
(lp1839
I5
aI2
aI1
asV\u75d2
(lp1840
I2
aI1
asV\u7aa5
(lp1841
I1
asV\u82ce
(lp1842
I2
aI1
asV\u7ee0
(lp1843
I1
asV\u9965
(lp1844
I2
aI1
asV\u97e6
(lp1845
I2
aI1
asV\u8426
(lp1846
I2
aI1
asV\u8bee
(lp1847
I1
asV\u66f0
(lp1848
I2
asV\u8273
(lp1849
I2
aI1
asV\u60f4
(lp1850
I2
asV\u7b79
(lp1851
I2
aI1
asV\U000299fa
(lp1852
I1
asV\u94fc
(lp1853
I1
asV\u907f
(lp1854
I3
asV\U000293fe
(lp1855
I1
asV\u8e81
(lp1856
I2
asV\u8c02
(lp1857
I1
asV\u8885
(lp1858
I1
asV\u6587
(lp1859
I4
aI3
aI2
asV\u6606
(lp1860
I4
aI3
aI2
asV\u5f8b
(lp1861
I3
asV\u9c8d
(lp1862
I1
asV\u798f
(lp1863
I3
aI2
asV\u9a0e
(lp1864
I3
aI2
asV\u7691
(lp1865
I1
asV\u6e16
(lp1866
I1
asV\u7ea1
(lp1867
I2
aI1
asV\u9f20
(lp1868
I3
aI2
asV\u5ba3
(lp1869
I2
asV\u98a5
(lp1870
I1
asV\u55a7
(lp1871
I2
asV\u9530
(lp1872
I1
asV\u52a9
(lp1873
I2
asV\U0002b328
(lp1874
I1
asV\u8fab
(lp1875
I2
aI1
asV\u9e72
(lp1876
I1
asV\u8d2c
(lp1877
I1
asV\u63b3
(lp1878
I1
asV\u5e36
(lp1879
I3
aI2
asV\u6c32
(lp1880
I1
asV\u783a
(lp1881
I1
asV\u94bd
(lp1882
I1
asV\u953c
(lp1883
I1
asV\u8bc3
(lp1884
I1
asV\U00028c42
(lp1885
I1
asV\u88c5
(lp1886
I2
aI1
asV\u62c9
(lp1887
I6
aI3
aI2
asV\u804a
(lp1888
I4
asV\u9ccd
(lp1889
I1
asV\u8363
(lp1890
I1
asV\u76d1
(lp1891
I2
aI1
asV\u7750
(lp1892
I1
asV\u5452
(lp1893
I1
asV\u6e56
(lp1894
I2
asV\u84dd
(lp1895
I2
aI1
asV\u625e
(lp1896
I2
asV\u7ee1
(lp1897
I1
asV\u9964
(lp1898
I1
asV\U0002b5e7
(lp1899
I1
asV\U00029666
(lp1900
I1
asV\u7368
(lp1901
I3
aI2
asV\u8feb
(lp1902
I2
asV\u89ef
(lp1903
I1
asV\u86f1
(lp1904
I1
asV\u6770
(lp1905
I2
aI1
asV\u5df7
(lp1906
I2
asV\u5e76
(lp1907
I4
aI3
aI2
aI1
asV\u7af9
(lp1908
I4
aI2
asV\u5b78
(lp1909
I3
aI2
asV\u987a
(lp1910
I3
aI2
aI1
asV\u94fd
(lp1911
I1
asV\u51ff
(lp1912
I1
asV\u4e01
(lp1913
I4
aI2
asV\u8f80
(lp1914
I1
asV\u6805
(lp1915
I1
asV\u6984
(lp1916
I1
asV\u6e90
(lp1917
I2
asV\U0002a388
(lp1918
I1
asV\u7f0b
(lp1919
I1
asV\u5c0d
(lp1920
I3
aI2
asV\u590f
(lp1921
I3
aI2
asV\u9a8e
(lp1922
I1
asV\u9611
(lp1923
I1
asV\u9492
(lp1924
I1
asV\u4d17
(lp1925
I1
asV\u5574
(lp1926
I1
asV\u6a19
(lp1927
I3
asV\u671b
(lp1928
I4
aI3
aI2
asV\u841d
(lp1929
I3
aI2
aI1
asV\u611f
(lp1930
I3
aI2
asV\u9e21
(lp1931
I6
aI4
aI3
aI2
aI1
asV\u9ca2
(lp1932
I1
asV\u9527
(lp1933
I1
asV\u5229
(lp1934
I4
aI2
asV\u53a8
(lp1935
I2
aI1
asV\u6f2b
(lp1936
I3
aI2
asV\u8c2d
(lp1937
I1
asV\u989c
(lp1938
I2
aI1
asV\u84b2
(lp1939
I3
asV5
(lp1940
I3
aI2
asV\u7eb6
(lp1941
I1
asV\u6865
(lp1942
I2
aI1
asV\u513f
(lp1943
I1
asV\u6fc0
(lp1944
I2
asV\u8845
(lp1945
I2
aI1
asV\u89c4
(lp1946
I2
aI1
asV\u9981
(lp1947
I1
asV\U0002a249
(lp1948
I1
asV\u60ca
(lp1949
I2
aI1
asV\u594f
(lp1950
I2
asV\u74d2
(lp1951
I1
asV\u6bcf
(lp1952
I3
aI2
asV\u8d57
(lp1953
I1
asV\u4ed6
(lp1954
I3
aI2
asV\u8bd8
(lp1955
I1
asV\u5f7b
(lp1956
I1
asV\u94a4
(lp1957
I1
asV\u9e61
(lp1958
I1
asV\u5fe0
(lp1959
I4
aI2
asV\u7c97
(lp1960
I2
asV\u9ce2
(lp1961
I1
asV\u5567
(lp1962
I1
asV\u5269
(lp1963
I2
asV\u8f6b
(lp1964
I1
asV\u5ba6
(lp1965
I2
asV\u6dec
(lp1966
I2
asV\u6ed7
(lp1967
I1
asV\u497f
(lp1968
I1
asV\u7d77
(lp1969
I1
asV\u7ef6
(lp1970
I1
asV\u9a79
(lp1971
I1
asV\u5bf8
(lp1972
I4
asV\u547d
(lp1973
I4
asV\u95fc
(lp1974
I1
asV\u917f
(lp1975
I2
aI1
asV\u52fe
(lp1976
I4
aI2
asV\u5181
(lp1977
I1
asV\u9000
(lp1978
I4
aI3
aI2
asV\u86f4
(lp1979
I1
asV\u5785
(lp1980
I1
asV\u9604
(lp1981
I1
asV\u9a87
(lp1982
I1
asV\u3d89
(lp1983
I1
asV\u5c08
(lp1984
I3
asV\u7f0a
(lp1985
I1
asV\u820c
(lp1986
I4
asV\U0002a68f
(lp1987
I1
asV\u50ac
(lp1988
I2
asV\u8f95
(lp1989
I1
asV\u6e14
(lp1990
I1
asV\u7116
(lp1991
I1
asV\u9f85
(lp1992
I1
asV\u789b
(lp1993
I1
asV\u5b9d
(lp1994
I4
aI3
aI2
aI1
asV\u5e9f
(lp1995
I2
aI1
asV\u9f80
(lp1996
I1
asV\u6020
(lp1997
I2
asV\u6322
(lp1998
I1
asV\u67a5
(lp1999
I1
asV\u6668
(lp2000
I2
asV\u6da9
(lp2001
I1
asV\u8c28
(lp2002
I3
aI1
asV\u4f2a
(lp2003
I2
aI1
asV\u93ad
(lp2004
I1
asV\u522c
(lp2005
I1
asV\u952e
(lp2006
I1
asV\u7830
(lp2007
I2
asV\u5cb3
(lp2008
I2
asV\u9e34
(lp2009
I1
asV\u8136
(lp2010
I1
asV\u65b9
(lp2011
I3
aI2
asV\u673a
(lp2012
I4
aI3
aI2
aI1
asV\u8bbd
(lp2013
I1
asV\u709d
(lp2014
I1
asV\u4ebf
(lp2015
I3
aI2
aI1
asV\u8d3e
(lp2016
I2
aI1
asV\u9ce1
(lp2017
I1
asV\u94c3
(lp2018
I1
asV\u9644
(lp2019
I3
aI2
asV\u9aa8
(lp2020
I12
aI3
aI2
asV\U0002a24c
(lp2021
I1
asV\u86cf
(lp2022
I2
aI1
asV\u89d1
(lp2023
I1
asV\u8cd3
(lp2024
I2
asV\u4e54
(lp2025
I2
aI1
asV\u5156
(lp2026
I1
asV\u5458
(lp2027
I3
aI1
asV\u6c42
(lp2028
I4
aI3
aI2
asV\u575a
(lp2029
I2
aI1
asV\u5bdd
(lp2030
I1
asV\u7edf
(lp2031
I1
asV\u84e3
(lp2032
I1
asV\u6362
(lp2033
I2
aI1
asV\u67e5
(lp2034
I2
asV\u70eb
(lp2035
I4
aI3
aI2
aI1
asV\u8f6a
(lp2036
I1
asV\u73ed
(lp2037
I2
asV\u76ef
(lp2038
I3
aI2
asV\u556e
(lp2039
I1
asV\U000299f1
(lp2040
I1
asV\u5e74
(lp2041
I3
aI2
asV\u7b5c
(lp2042
I1
asV\u7168
(lp2043
I2
asV\u6478
(lp2044
I2
asV\u8bfd
(lp2045
I1
asV\u6a7c
(lp2046
I1
asV\u4eff
(lp2047
I2
asV\u7080
(lp2048
I1
asV\u5403
(lp2049
I4
aI3
aI2
asV\u5382
(lp2050
I2
aI1
asV\u7684
(lp2051
I3
aI2
asV\u5a07
(lp2052
I1
asV\u9986
(lp2053
I2
aI1
asV\u9c88
(lp2054
I1
asV\u9f8a
(lp2055
I1
asV\u8c13
(lp2056
I1
asV\u6b92
(lp2057
I1
asV\u6f15
(lp2058
I2
asV\u4e94
(lp2059
I5
aI4
aI3
aI2
asV\u5217
(lp2060
I5
aI2
asV\u9519
(lp2061
I1
asV\u7545
(lp2062
I2
aI1
asV\u7a9c
(lp2063
I1
asV\u9e1f
(lp2064
I1
asV\u54c4
(lp2065
I4
aI2
asV\u60a0
(lp2066
I4
aI3
aI2
asV\uff1a
(lp2067
I3
asV\u4725
(lp2068
I1
asV\u8570
(lp2069
I1
asV\u8d29
(lp2070
I1
asV\u4faa
(lp2071
I1
asV\u72ac
(lp2072
I2
asV\u75ae
(lp2073
I1
asV\u78b0
(lp2074
I2
asV\u7f35
(lp2075
I1
asV\u7eb4
(lp2076
I1
asV\u6237
(lp2077
I1
asV\u6539
(lp2078
I2
asV\u64b8
(lp2079
I1
asV\U0002a24b
(lp2080
I1
asV\u53c2
(lp2081
I4
aI3
aI2
aI1
asV\u96c4
(lp2082
I3
asV\u79c6
(lp2083
I1
asV\u914d
(lp2084
I4
aI3
aI2
asV\u604b
(lp2085
I4
aI1
asV\u634d
(lp2086
I2
asV\u82cc
(lp2087
I1
asV\u864f
(lp2088
I1
asV\u57ad
(lp2089
I1
asV\U00028c53
(lp2090
I1
asV\u6bd2
(lp2091
I2
asV\U00029f8a
(lp2092
I1
asV\u8bba
(lp2093
I1
asV\u9189
(lp2094
I2
asV\u9978
(lp2095
I1
asV\u9559
(lp2096
I1
asV\u94d8
(lp2097
I1
asV\u57da
(lp2098
I1
asV\u7b5d
(lp2099
I1
asV\u9e5f
(lp2100
I1
asV\u8463
(lp2101
I4
asV\u9a7a
(lp2102
I1
asV\u6765
(lp2103
I2
aI1
asV\u89e6
(lp2104
I2
aI1
asV\u6d69
(lp2105
I4
aI2
asV\u6ce8
(lp2106
I4
aI2
asV\u706b
(lp2107
I4
aI3
aI2
asV\u4fea
(lp2108
I1
asV\u736d
(lp2109
I1
asV\u72ec
(lp2110
I4
aI2
aI1
asV\U0002966f
(lp2111
I1
asV\U0002b5ee
(lp2112
I1
asV\u9971
(lp2113
I1
asV\u58f0
(lp2114
I1
asV\u7c73
(lp2115
I2
asV\u7f75
(lp2116
I3
aI2
asV\u7ef4
(lp2117
I2
aI1
asV\u8277
(lp2118
I2
asV\u9002
(lp2119
I1
asV\u507e
(lp2120
I1
asV\u59cb
(lp2121
I2
asV\u9634
(lp2122
I5
aI3
aI2
aI1
asV\u8e7f
(lp2123
I1
asV\u94e9
(lp2124
I1
asV\u5b87
(lp2125
I3
asV\u9806
(lp2126
I3
aI2
asV\u7c89
(lp2127
I4
aI3
asV\u4336
(lp2128
I1
asV\u828d
(lp2129
I2
asV\u630c
(lp2130
I2
asV\u4e95
(lp2131
I4
aI2
asV\u6f14
(lp2132
I3
aI2
asV\u9499
(lp2133
I1
asV\u7518
(lp2134
I3
asV\u961a
(lp2135
I1
asV\u7a9d
(lp2136
I2
aI1
asV\u95eb
(lp2137
I3
aI1
asV\u7f9f
(lp2138
I1
asV\u80a1
(lp2139
I2
asV\u6120
(lp2140
I1
asV\u51af
(lp2141
I1
asV\u8ba7
(lp2142
I1
asV\u6ca9
(lp2143
I1
asV\u8d28
(lp2144
I2
aI1
asV\u91ab
(lp2145
I3
asV\u4e2a
(lp2146
I4
aI3
aI2
aI1
asV\u732c
(lp2147
I1
asV\u97af
(lp2148
I1
asV\u78b1
(lp2149
I1
asV\u5a32
(lp2150
I2
aI1
asV\u7eb5
(lp2151
I2
aI1
asV\u7f34
(lp2152
I1
asV\u63b7
(lp2153
I1
asV6
(lp2154
I3
aI2
asV\u4fbf
(lp2155
I2
asV\U00028c3e
(lp2156
I1
asV\u90c1
(lp2157
I4
aI3
aI2
asV\u5140
(lp2158
I2
asV\u5242
(lp2159
I1
asV\u96c5
(lp2160
I3
aI2
asV\u5bc7
(lp2161
I2
asV\u9cc9
(lp2162
I1
asV\u6e0d
(lp2163
I1
asV\u9e4a
(lp2164
I1
asV\u82cd
(lp2165
I2
aI1
asV\u87cf
(lp2166
I1
asV\u9cb1
(lp2167
I1
asV\u53d7
(lp2168
I3
aI2
asV\u7c38
(lp2169
I2
asV\u54d9
(lp2170
I1
asV\u9558
(lp2171
I1
asV\u90bb
(lp2172
I1
asV\u5c5e
(lp2173
I2
aI1
asV\u80e1
(lp2174
I4
aI3
aI2
asV\u8be7
(lp2175
I1
asV\u6866
(lp2176
I1
asV\u51eb
(lp2177
I1
asV\u8e6a
(lp2178
I2
asV\u72ed
(lp2179
I1
asV\u57ef
(lp2180
I1
asV\U00028c47
(lp2181
I1
asV\u9970
(lp2182
I1
asV\u9a72
(lp2183
I1
asV\u7ef5
(lp2184
I1
asV\u7f74
(lp2185
I1
asV\u6076
(lp2186
I4
aI2
aI1
asV\u6578
(lp2187
I3
aI2
asV\u553e
(lp2188
I4
aI2
asV\u6b7c
(lp2189
I1
asV\u3001
(lp2190
I3
asV\u5180
(lp2191
I3
aI2
asV\u9503
(lp2192
I1
asV\u9605
(lp2193
I1
asV\u5784
(lp2194
I4
aI1
asV\u9886
(lp2195
I3
aI1
asV\u7f17
(lp2196
I1
asV\u5c96
(lp2197
I1
asV\u820d
(lp2198
I4
aI3
aI2
asV\U0002a38c
(lp2199
I1
asV\u6811
(lp2200
I2
aI1
asV\u4d13
(lp2201
I1
asV\u8f94
(lp2202
I1
asV\u5317
(lp2203
I4
aI3
aI2
asV\u7096
(lp2204
I2
aI1
asV\u551b
(lp2205
I1
asV\uff1f
(lp2206
I3
asV\u9c9e
(lp2207
I1
asV\u81a0
(lp2208
I3
aI2
asV\u62a2
(lp2209
I2
aI1
asV\u6625
(lp2210
I4
aI3
aI2
asV\u6b27
(lp2211
I2
aI1
asV\u68a6
(lp2212
I5
aI2
aI1
asV\u6c29
(lp2213
I1
asV\u6da8
(lp2214
I1
asV\u722d
(lp2215
I3
aI2
asV\u9e73
(lp2216
I1
asV\u94ae
(lp2217
I1
asV\u9e35
(lp2218
I1
asV\u4337
(lp2219
I1
asV\u8bbc
(lp2220
I1
asV\u91c0
(lp2221
I3
aI2
asV\u9543
(lp2222
I1
asV\u72c2
(lp2223
I3
aI2
asV\u9645
(lp2224
I1
asV\u9b47
(lp2225
I1
asV\u5c49
(lp2226
I1
asV\u6bcd
(lp2227
I2
asV\u7eca
(lp2228
I1
asV\u624d
(lp2229
I7
aI4
aI3
aI2
asV\u83cc
(lp2230
I3
asV\u6851
(lp2231
I2
asV\u89d0
(lp2232
I1
asV\u6d53
(lp2233
I2
aI1
asV\u7ecf
(lp2234
I3
aI1
asV\u5357
(lp2235
I4
aI3
aI2
asV\U0002b6f8
(lp2236
I1
asV\u5459
(lp2237
I1
asV\u5c42
(lp2238
I1
asV\u6d4e
(lp2239
I1
asV\u9cde
(lp2240
I1
asV\u91d1
(lp2241
I4
aI3
aI2
asV\u6563
(lp2242
I2
asV\u62e2
(lp2243
I1
asV\u997d
(lp2244
I1
asV\u516b
(lp2245
I4
aI3
aI2
asV\u4eea
(lp2246
I2
aI1
asV\u54d3
(lp2247
I1
asV\u74ee
(lp2248
I2
asV\u79f0
(lp2249
I2
aI1
asV\u5c7f
(lp2250
I1
asV\u6377
(lp2251
I2
asV\u80f6
(lp2252
I2
aI1
asV\u65f8
(lp2253
I1
asV\u5ffe
(lp2254
I1
asV\u7d2b
(lp2255
I2
asV\u8f7f
(lp2256
I1
asV\u6cfe
(lp2257
I1
asV\u5404
(lp2258
I3
aI2
asV\u9887
(lp2259
I1
asV\U0002b300
(lp2260
I1
asV\u9f89
(lp2261
I1
asV\u5e08
(lp2262
I2
aI1
asV\u800c
(lp2263
I3
asV\u5f2a
(lp2264
I1
asV\u8912
(lp2265
I2
asV\u8d95
(lp2266
I3
aI2
asV\u8c14
(lp2267
I1
asV\u9618
(lp2268
I1
asV\u9a9b
(lp2269
I1
asV\u751a
(lp2270
I2
asV\u781c
(lp2271
I1
asV\u9c9f
(lp2272
I1
asV\u7f1e
(lp2273
I1
asV\u65a5
(lp2274
I3
aI2
asV\u6424
(lp2275
I4
asV\u89da
(lp2276
I2
asV\u8fa9
(lp2277
I2
aI1
asV\u52ab
(lp2278
I2
asV\u6d2a
(lp2279
I2
asV\u54af
(lp2280
I2
asV\u7eb3
(lp2281
I2
aI1
asV\u68c1
(lp2282
I1
asV\u5c34
(lp2283
I1
asV
(lp2284
I2
asV\u8336
(lp2285
I2
asV\u8638
(lp2286
I3
aI2
asV\u853a
(lp2287
I1
asV\u683c
(lp2288
I5
aI4
aI3
aI2
asV\u6cbf
(lp2289
I3
aI2
asV\u63b4
(lp2290
I1
asV\u53c1
(lp2291
I1
asV\u5240
(lp2292
I1
asV\u9142
(lp2293
I1
asV\u55c5
(lp2294
I3
aI2
asV\u9e48
(lp2295
I1
asV\u82cb
(lp2296
I1
asV\u7a92
(lp2297
I2
asV\u5ce3
(lp2298
I1
asV\u874e
(lp2299
I4
aI2
aI1
asV\u8bd1
(lp2300
I2
aI1
asV\u4ed3
(lp2301
I1
asV\U00028c54
(lp2302
I1
asV\u5356
(lp2303
I3
aI2
aI1
asV\u57d9
(lp2304
I1
asV\u955a
(lp2305
I1
asV\u753b
(lp2306
I2
aI1
asV\u9cdf
(lp2307
I1
asV\u63e1
(lp2308
I2
asV\u9a91
(lp2309
I1
asV\u65e5
(lp2310
I3
aI2
asV\u62e7
(lp2311
I2
aI1
asV\u6b66
(lp2312
I2
asV\u4fe9
(lp2313
I1
asV\u578b
(lp2314
I2
asV\u6d6a
(lp2315
I3
aI2
asV\u51ed
(lp2316
I3
aI2
aI1
asV\u506c
(lp2317
I1
asV\u94ef
(lp2318
I2
aI1
asV\u7bf1
(lp2319
I1
asV\u9a70
(lp2320
I1
asV\u7ef3
(lp2321
I1
asV\u9972
(lp2322
I2
aI1
asV\u7c74
(lp2323
I1
asV\u6376
(lp2324
I2
asV\u8f7e
(lp2325
I1
asV\u6eba
(lp2326
I2
asV\u7c41
(lp2327
I1
asV\u9603
(lp2328
I2
aI1
asV\u56f4
(lp2329
I1
asV\u9505
(lp2330
I2
aI1
asV\U00021484
(lp2331
I1
asV\U00029807
(lp2332
I1
asV\u7f09
(lp2333
I2
aI1
asV\u620b
(lp2334
I1
asV\u810d
(lp2335
I1
asV\u640f
(lp2336
I2
asV\u4c9d
(lp2337
I1
asV\u4e13
(lp2338
I3
aI2
aI1
asV\u4d15
(lp2339
I1
asV\u789c
(lp2340
I1
asV\u4bc4
(lp2341
I1
asV\u6321
(lp2342
I1
asV\u62a0
(lp2343
I1
asV\u64a4
(lp2344
I2
asV\u8ba6
(lp2345
I1
asV\u522b
(lp2346
I7
aI3
aI2
aI1
asV\u912d
(lp2347
I3
asV\u90ac
(lp2348
I1
asV\u542f
(lp2349
I1
asV\u9e33
(lp2350
I1
asV\U0002b372
(lp2351
I1
asV\u9cb4
(lp2352
I1
asV7
(lp2353
I3
aI2
asV\u83b6
(lp2354
I1
asV\u8d4b
(lp2355
I1
asV\U00028c3f
(lp2356
I1
asV\u8fbe
(lp2357
I1
asV\u5341
(lp2358
I4
aI3
aI2
asV\u9545
(lp2359
I1
asV\u94c4
(lp2360
I1
asV\u5bc6
(lp2361
I2
asV\u7ec8
(lp2362
I2
aI1
asV\u624b
(lp2363
I4
aI3
aI2
asV\u80cc
(lp2364
I3
aI2
asV\u89d2
(lp2365
I3
asV\u8d55
(lp2366
I1
asV\u9057
(lp2367
I3
aI2
aI1
asV\u53d6
(lp2368
I2
asV\u9759
(lp2369
I1
asV\u76d8
(lp2370
I2
aI1
asV\u795d
(lp2371
I2
asV\u5524
(lp2372
I1
asV\u8361
(lp2373
I4
aI2
aI1
asV\u6867
(lp2374
I1
asV\u8be6
(lp2375
I4
aI2
aI1
asV\u8f69
(lp2376
I2
aI1
asV\u6ee8
(lp2377
I1
asV\u8dea
(lp2378
I3
aI2
asV\u516d
(lp2379
I4
aI3
aI2
asV\u70ec
(lp2380
I2
aI1
asV\u77ee
(lp2381
I2
asV\u5e73
(lp2382
I4
aI3
aI2
asV\U000299f2
(lp2383
I1
asV\u56ff
(lp2384
I2
asV\u497d
(lp2385
I1
asV\u8bbf
(lp2386
I1
asV\u5300
(lp2387
I1
asV\u3002
(lp2388
I3
asV\u9485
(lp2389
I1
asV\u9504
(lp2390
I1
asV\u9987
(lp2391
I1
asV\u5a06
(lp2392
I1
asV\u7f08
(lp2393
I1
asV\U0002a38b
(lp2394
I1
asV\u7f14
(lp2395
I1
asV\u660e
(lp2396
I4
aI2
asV\u7410
(lp2397
I1
asV\u8f93
(lp2398
I1
asV\u4d14
(lp2399
I1
asV\u5197
(lp2400
I2
asV\U0002b699
(lp2401
I1
asV\u7f11
(lp2402
I1
asV\u989d
(lp2403
I5
aI4
aI2
aI1
asV\u591c
(lp2404
I3
aI2
asV\u62a1
(lp2405
I1
asV\u6320
(lp2406
I1
asV\u67a3
(lp2407
I2
aI1
asV\u8022
(lp2408
I1
asV\u4ea9
(lp2409
I1
asV\u8c2a
(lp2410
I1
asV\u75af
(lp2411
I1
asV\u9509
(lp2412
I1
asV\u9cb5
(lp2413
I1
asV\u5baa
(lp2414
I1
asV\u8bbb
(lp2415
I1
asV\u643a
(lp2416
I1
asV\u5d58
(lp2417
I1
asV\u4e3e
(lp2418
I4
aI3
aI1
asV\u8c61
(lp2419
I3
aI2
asV\u57c3
(lp2420
I4
aI3
asV\u94c5
(lp2421
I1
asV\u9544
(lp2422
I1
asV\u7a46
(lp2423
I6
aI5
asV\u7ec9
(lp2424
I1
asV\u5c4a
(lp2425
I1
asV\u614c
(lp2426
I4
asV\u85cf
(lp2427
I4
aI3
aI2
asV\u864e
(lp2428
I2
asV\u5f62
(lp2429
I4
aI2
asV\u6cd5
(lp2430
I3
aI2
asV\u6d54
(lp2431
I1
asV\u5624
(lp2432
I1
asV\u5e5e
(lp2433
I1
asV\u8360
(lp2434
I1
asV\u7686
(lp2435
I4
aI2
asV\u8a66
(lp2436
I3
aI2
asV\u6ee9
(lp2437
I2
aI1
asV\u8f68
(lp2438
I2
aI1
asV\u53eb
(lp2439
I3
aI2
asV\u64e6
(lp2440
I3
aI2
asV\u70ed
(lp2441
I1
asV\u516c
(lp2442
I4
aI3
aI2
asV\u95ef
(lp2443
I2
aI1
asV\U0002966e
(lp2444
I1
asV\u5af1
(lp2445
I1
asV\u61f7
(lp2446
I3
aI2
asV\u6276
(lp2447
I3
asV\u8bfb
(lp2448
I1
asV\u697c
(lp2449
I1
asV\u6e7e
(lp2450
I1
asV\u5584
(lp2451
I2
asV\u5907
(lp2452
I2
aI1
asV\u9a86
(lp2453
I1
asV\u9f88
(lp2454
I1
asV\u9c8a
(lp2455
I1
asV\u800d
(lp2456
I2
asV\u6f13
(lp2457
I2
asV\u6042
(lp2458
I2
asV\u8c15
(lp2459
I1
asV\u9c98
(lp2460
I1
asV\u9619
(lp2461
I1
asV\u949a
(lp2462
I1
asV\u5e9e
(lp2463
I1
asV\u4723
(lp2464
I1
asV\u8425
(lp2465
I2
aI1
asV\u8e29
(lp2466
I3
aI2
asV\u4fa8
(lp2467
I1
asV\u732b
(lp2468
I1
asV\u6caa
(lp2469
I1
asV\u51ac
(lp2470
I3
aI2
asV\u952f
(lp2471
I1
asV\u76ae
(lp2472
I4
aI3
aI2
asV\u5a31
(lp2473
I1
asV\u9ec9
(lp2474
I1
asV\u7f33
(lp2475
I1
asV\u86f2
(lp2476
I1
asV\u64ba
(lp2477
I1
asV\u8d3f
(lp2478
I1
asV\u70c2
(lp2479
I1
asV\u5947
(lp2480
I2
asV\u9e49
(lp2481
I1
asV\u7cca
(lp2482
I4
asV\u804d
(lp2483
I1
asV\u654f
(lp2484
I2
asV\u86ce
(lp2485
I1
asV\u8bd0
(lp2486
I1
asV\u4f53
(lp2487
I2
aI1
asV\u68d2
(lp2488
I3
asV\U00028c55
(lp2489
I1
asV\u65cf
(lp2490
I2
asV\u5659
(lp2491
I4
asV\u57d8
(lp2492
I1
asV\u7b5b
(lp2493
I1
asV\u94da
(lp2494
I1
asV\u59dc
(lp2495
I5
aI3
aI2
asV\u9ede
(lp2496
I3
aI2
asV\u83e0
(lp2497
I3
asV\u74dc
(lp2498
I4
asV\u9cbf
(lp2499
I1
asV\u6d4d
(lp2500
I1
asV\u85e4
(lp2501
I2
asV\u4fe8
(lp2502
I1
asV\u536b
(lp2503
I3
aI1
asV\u6cea
(lp2504
I4
aI2
aI1
asV\u706d
(lp2505
I1
asV\u956f
(lp2506
I1
asV\u9a71
(lp2507
I1
asV\u7529
(lp2508
I2
asV\u5df4
(lp2509
I7
aI3
asV\u94a8
(lp2510
I1
asV\u7cd5
(lp2511
I2
asV\u6b7b
(lp2512
I4
aI3
aI2
asV\u64fa
(lp2513
I3
aI2
asV\u8d54
(lp2514
I1
asV\u7f81
(lp2515
I2
aI1
asV\u5385
(lp2516
I1
asV\u608d
(lp2517
I2
asV\u9989
(lp2518
I1
asV\U00029808
(lp2519
I1
asV\u848b
(lp2520
I1
asV\u478d
(lp2521
I1
asV\u7a83
(lp2522
I4
aI1
asV\u8c10
(lp2523
I1
asV\u8e2f
(lp2524
I1
asV\u9516
(lp2525
I1
asV\u5199
(lp2526
I3
aI1
asV\u4985
(lp2527
I1
asV\u5c9b
(lp2528
I1
asV\u8bdb
(lp2529
I1
asV\u9a9f
(lp2530
I1
asV\u63a5
(lp2531
I3
aI2
asV\u8487
(lp2532
I1
asV\u4ea7
(lp2533
I4
aI1
asV\u8d26
(lp2534
I1
asV\u94ab
(lp2535
I1
asV\u94f0
(lp2536
I1
asV\u97ad
(lp2537
I4
asV\u72af
(lp2538
I4
aI3
asV\u5389
(lp2539
I1
asV\u7f32
(lp2540
I1
asV\u5a34
(lp2541
I1
asV\u6536
(lp2542
I2
asV8
(lp2543
I3
aI2
asV\u6cbb
(lp2544
I2
asV\u7e5e
(lp2545
I3
aI2
asV\u8fbd
(lp2546
I2
aI1
asV\u70c3
(lp2547
I1
asV\u7ec7
(lp2548
I1
asV\u64cb
(lp2549
I3
aI2
asV\u82cf
(lp2550
I2
aI1
asV\u8dd1
(lp2551
I3
aI2
asV\U00028c50
(lp2552
I1
asV\u8bd5
(lp2553
I2
aI1
asV\u76d7
(lp2554
I2
aI1
asV\u9556
(lp2555
I1
asV\u84e5
(lp2556
I1
asV\u9cdb
(lp2557
I1
asV\u535a
(lp2558
I2
asV\u7596
(lp2559
I1
asV\u9e5c
(lp2560
I1
asV\u795e
(lp2561
I4
aI3
aI2
asV\u8868
(lp2562
I4
aI3
aI2
asV\u94eb
(lp2563
I1
asV\u4b6a
(lp2564
I1
asV\u77ed
(lp2565
I2
asV\U0002966c
(lp2566
I1
asV\u72ef
(lp2567
I1
asV\u716e
(lp2568
I2
asV\u9cc1
(lp2569
I1
asV\u9ee9
(lp2570
I1
asV\u58f3
(lp2571
I2
aI1
asV\u9a74
(lp2572
I1
asV\u6078
(lp2573
I1
asV\u6cfb
(lp2574
I2
aI1
asV\u8ffd
(lp2575
I3
aI2
asV\u9501
(lp2576
I1
asV\u5782
(lp2577
I2
asV\u5305
(lp2578
I2
asV\u9c97
(lp2579
I1
asV\u9888
(lp2580
I1
asV\u640b
(lp2581
I2
asV\uff16
(lp2582
I3
aI2
asV\u670d
(lp2583
I2
asV\u620f
(lp2584
I4
aI2
aI1
asV\u8f92
(lp2585
I1
asV\u9617
(lp2586
I1
asV\U00029596
(lp2587
I1
asV\u7119
(lp2588
I2
asV\u666e
(lp2589
I3
asV\u7f1d
(lp2590
I2
aI1
asV\u5e9c
(lp2591
I3
aI2
asV\u7ec4
(lp2592
I2
aI1
asV\u8d2a
(lp2593
I2
aI1
asV\u67a2
(lp2594
I1
asV\u6325
(lp2595
I3
aI2
aI1
asV\u62a4
(lp2596
I2
aI1
asV\u4e27
(lp2597
I2
aI1
asV\u6da6
(lp2598
I1
asV\u68a8
(lp2599
I2
asV\u542b
(lp2600
I4
aI3
aI2
asV\u8baa
(lp2601
I1
asV\u972d
(lp2602
I1
asV\u9cb0
(lp2603
I1
asV\u60b8
(lp2604
I2
asV\u63ba
(lp2605
I1
asV\u8c22
(lp2606
I4
aI1
asV\u9541
(lp2607
I1
asV\u7fa1
(lp2608
I2
aI1
asV\u72c4
(lp2609
I3
asV\u9e47
(lp2610
I1
asV\U0002a24f
(lp2611
I1
asV\u5acc
(lp2612
I4
aI2
asV\u6d51
(lp2613
I2
aI1
asV\u53fd
(lp2614
I1
asV\u6fd2
(lp2615
I1
asV\u75d6
(lp2616
I1
asV\u70d8
(lp2617
I2
asV\u7edc
(lp2618
I3
aI1
asV\u7c7c
(lp2619
I1
asV\u84e0
(lp2620
I1
asV\u8365
(lp2621
I1
asV\u8bea
(lp2622
I1
asV\u5cf0
(lp2623
I2
asV\u7b75
(lp2624
I2
asV\u65f6
(lp2625
I3
aI2
aI1
asV\u4e7e
(lp2626
I3
asV\u8f7d
(lp2627
I1
asV\u9500
(lp2628
I1
asV\u9602
(lp2629
I1
asV\u9f87
(lp2630
I1
asV\u5c06
(lp2631
I3
aI2
aI1
asV\u9889
(lp2632
I1
asV\u658b
(lp2633
I1
asV\U00029a0a
(lp2634
I1
asV\u600e
(lp2635
I3
aI2
asV\u88af
(lp2636
I1
asV\u5099
(lp2637
I3
aI2
asV\u7118
(lp2638
I1
asV\u521a
(lp2639
I4
aI2
aI1
asV\u7f1c
(lp2640
I2
aI1
asV\u57b1
(lp2641
I1
asV\u62a5
(lp2642
I1
asV\u6324
(lp2643
I1
asV\u4fa7
(lp2644
I1
asV\u8c26
(lp2645
I1
asV\u6a2a
(lp2646
I4
aI2
aI1
asV\u772c
(lp2647
I1
asV\u73af
(lp2648
I2
aI1
asV\u5cb1
(lp2649
I2
asV\u9e32
(lp2650
I1
asV\u5b34
(lp2651
I2
asV\u5f88
(lp2652
I2
asV\u8138
(lp2653
I1
asV\u4f3c
(lp2654
I2
asV\u6bbf
(lp2655
I4
asV\u6bf5
(lp2656
I1
asV\u94c1
(lp2657
I3
aI2
aI1
asV\u9540
(lp2658
I1
asV\u7344
(lp2659
I2
asV\u5948
(lp2660
I4
asV\u65cb
(lp2661
I4
aI3
aI2
asV\u6d50
(lp2662
I1
asV\u8e52
(lp2663
I1
asV\u5456
(lp2664
I1
asV\u9a73
(lp2665
I1
asV\u7edd
(lp2666
I4
aI2
aI1
asV\u6ee4
(lp2667
I1
asV\u81e3
(lp2668
I2
asV\u793a
(lp2669
I2
asV\u62e5
(lp2670
I1
asV\u8364
(lp2671
I1
asV\u55eb
(lp2672
I1
asV\u56ed
(lp2673
I3
aI2
aI1
asV\uff13
(lp2674
I3
aI2
asV\u53ef
(lp2675
I4
aI3
asV\u906e
(lp2676
I2
asV\U00029a06
(lp2677
I1
asV\u8302
(lp2678
I3
asV\U000299f3
(lp2679
I1
asV\u5e72
(lp2680
I7
aI5
aI4
aI3
aI2
asV\u8dfb
(lp2681
I1
asV\u827a
(lp2682
I1
asV\u8f7c
(lp2683
I1
asV\u8bff
(lp2684
I1
asV\u5401
(lp2685
I2
asV\u5384
(lp2686
I4
aI3
asV\u7f07
(lp2687
I1
asV\u9c86
(lp2688
I1
asV\u5988
(lp2689
I1
asV\u9a8a
(lp2690
I1
asV\u478c
(lp2691
I1
asV\u830f
(lp2692
I1
asV\u6c11
(lp2693
I2
asV\u9496
(lp2694
I1
asV\u5019
(lp2695
I3
aI2
asV\u589e
(lp2696
I2
asV\u9171
(lp2697
I1
asV\u4f27
(lp2698
I1
asV\u6ca6
(lp2699
I1
asV\u69a8
(lp2700
I2
asV\u952b
(lp2701
I1
asV\u70ae
(lp2702
I2
asV\u5c31
(lp2703
I3
aI2
asV\u7eb2
(lp2704
I1
asV\u5bb4
(lp2705
I2
asV9
(lp2706
I3
aI2
asV\u6d3b
(lp2707
I3
aI2
asV\u4e3d
(lp2708
I2
aI1
asV\u9899
(lp2709
I1
asV\u68be
(lp2710
I1
asV\u5143
(lp2711
I2
asV\u7a77
(lp2712
I4
aI2
aI1
asV\u9cc6
(lp2713
I1
asV\u634f
(lp2714
I3
asV\u80ce
(lp2715
I2
asV\u8bd4
(lp2716
I2
aI1
asV\u5757
(lp2717
I1
asV\u94d6
(lp2718
I1
asV\u52da
(lp2719
I1
asV\u9e5d
(lp2720
I1
asV\u98de
(lp2721
I4
aI3
aI2
aI1
asV\u8461
(lp2722
I3
aI2
asV\u65e0
(lp2723
I4
aI2
aI1
asV\u6163
(lp2724
I3
aI2
asV\u8f67
(lp2725
I1
asV\u3ecf
(lp2726
I1
asV\u6869
(lp2727
I1
asV\u956b
(lp2728
I1
asV\u9aa6
(lp2729
I1
asV\U0002966d
(lp2730
I1
asV\u97ec
(lp2731
I1
asV\u50ee
(lp2732
I2
asV\u5c71
(lp2733
I4
aI3
aI2
asV\u6e29
(lp2734
I1
asV\u5973
(lp2735
I3
aI2
asV\u7ef2
(lp2736
I1
asV\u5a75
(lp2737
I1
asV\u6079
(lp2738
I1
asV\u9600
(lp2739
I1
asV\u7caa
(lp2740
I4
aI1
asV\u5185
(lp2741
I4
aI3
aI2
aI1
asV\u9c87
(lp2742
I2
aI1
asV\u7f06
(lp2743
I1
asV\u5b89
(lp2744
I7
aI4
aI3
aI2
asV\U00029a08
(lp2745
I1
asV\u4f86
(lp2746
I3
aI2
asV\u71ac
(lp2747
I2
asV\u8f91
(lp2748
I1
asV\u8bd9
(lp2749
I1
asV\u6d12
(lp2750
I2
aI1
asV\u552f
(lp2751
I3
asV\u9497
(lp2752
I1
asV\u5218
(lp2753
I3
aI1
asV\u9e2d
(lp2754
I1
asV\u76db
(lp2755
I3
aI2
asV\u989f
(lp2756
I1
asV\u7f04
(lp2757
I1
asV\u6620
(lp2758
I3
aI2
asV\u6ca7
(lp2759
I1
asV\u4f26
(lp2760
I1
asV\u8ba9
(lp2761
I1
asV\u75ad
(lp2762
I1
asV\u542c
(lp2763
I2
aI1
asV\u732e
(lp2764
I2
aI1
asV\u9e30
(lp2765
I1
asV\u64b7
(lp2766
I1
asV\u83b9
(lp2767
I1
asV\u835e
(lp2768
I3
aI1
asV\u68bf
(lp2769
I1
asV\u52c3
(lp2770
I2
asV\u9542
(lp2771
I1
asV\u9cc7
(lp2772
I1
asV\u9a8d
(lp2773
I1
asV\u538b
(lp2774
I1
asV\u8fd1
(lp2775
I4
aI3
asV\u4e50
(lp2776
I3
aI1
asV\u6d52
(lp2777
I1
asV\u8854
(lp2778
I1
asV\u94d7
(lp2779
I1
asV\u53d9
(lp2780
I3
aI1
asV\u7edb
(lp2781
I1
asV\u515a
(lp2782
I3
aI2
aI1
asV\u7ddd
(lp2783
I2
asV\u98df
(lp2784
I4
aI2
asV\u6864
(lp2785
I1
asV\u62e3
(lp2786
I1
asV\u6562
(lp2787
I4
aI3
aI2
asV\u7f1b
(lp2788
I1
asV\U0002b4e7
(lp2789
I1
asV\u8f66
(lp2790
I3
aI2
aI1
asV\u8be9
(lp2791
I1
asV\u95ed
(lp2792
I1
asV\u94b3
(lp2793
I1
asV\u7ff1
(lp2794
I2
asV\u9e70
(lp2795
I2
aI1
asV\U000299f5
(lp2796
I1
asV\u80eb
(lp2797
I1
asV\u8278
(lp2798
I4
asV\u4efb
(lp2799
I4
aI3
aI2
asV\u9701
(lp2800
I2
aI1
asV\u5582
(lp2801
I4
aI2
asV\u5b97
(lp2802
I3
asV\U00029f86
(lp2803
I1
asV\u5b09
(lp2804
I2
asV\u9a88
(lp2805
I1
asV\u998a
(lp2806
I1
asV\u848c
(lp2807
I1
asV\u4f11
(lp2808
I2
asV\u5c99
(lp2809
I1
asV\u5417
(lp2810
I1
asV\u4d18
(lp2811
I1
asV\u7c9c
(lp2812
I1
asV\u5b9e
(lp2813
I2
aI1
asV\u8721
(lp2814
I2
aI1
asV\u8223
(lp2815
I1
asV\u80a4
(lp2816
I2
aI1
asV\u8c27
(lp2817
I1
asV\u8fa6
(lp2818
I3
aI2
asV\u762b
(lp2819
I1
asV\u952d
(lp2820
I1
asV\u94ac
(lp2821
I1
asV\u53ae
(lp2822
I2
aI1
asV\u7f31
(lp2823
I1
asV\u7eb0
(lp2824
I1
asV\u7a33
(lp2825
I2
aI1
asV\u7db2
(lp2826
I4
aI2
asV\u67b6
(lp2827
I2
asV\u4339
(lp2828
I1
asV\u4e3b
(lp2829
I4
aI3
aI2
asV\u541e
(lp2830
I2
asV\u8d3d
(lp2831
I1
asV\u8bbe
(lp2832
I1
asV\u7741
(lp2833
I1
asV\u5243
(lp2834
I2
asV\u9cca
(lp2835
I1
asV\u5145
(lp2836
I2
asV\u5fc6
(lp2837
I1
asV\u9b49
(lp2838
I1
asV\u664b
(lp2839
I2
aI1
asV\u8f76
(lp2840
I1
asV\u51cc
(lp2841
I3
asV\U0002aed0
(lp2842
I1
asV\u754f
(lp2843
I2
asV\u5457
(lp2844
I2
aI1
asV\U0002b359
(lp2845
I1
asV\u9e5b
(lp2846
I1
asV\u5d5d
(lp2847
I1
asV\u9cdc
(lp2848
I1
asV\u6f24
(lp2849
I1
asV\u6761
(lp2850
I2
aI1
asV\u8fe6
(lp2851
I2
asV\U0002966b
(lp2852
I1
asV\u5026
(lp2853
I2
asV\u556d
(lp2854
I1
asV\u94ec
(lp2855
I1
asV\u706f
(lp2856
I1
asV\u53ee
(lp2857
I4
aI2
asV\u5f71
(lp2858
I2
asV\u7ef0
(lp2859
I1
asV\u5a73
(lp2860
I1
asV\u5df2
(lp2861
I3
aI2
asV\u9975
(lp2862
I1
asV\u7528
(lp2863
I3
aI2
asV\u95e9
(lp2864
I1
asV\u6cfc
(lp2865
I1
asV\u8bfe
(lp2866
I2
aI1
asV\uff01
(lp2867
I3
asV\u9a89
(lp2868
I1
asV\u9b08
(lp2869
I2
asV\u818f
(lp2870
I2
asV\u4e91
(lp2871
I4
aI2
aI1
asV\u4f10
(lp2872
I4
asV\u6b93
(lp2873
I1
asV\u8c12
(lp2874
I1
asV\u8311
(lp2875
I1
asV\u7597
(lp2876
I1
asV\u9616
(lp2877
I1
asV\u9f9b
(lp2878
I1
asV\u901a
(lp2879
I3
aI2
asV\u9c9d
(lp2880
I1
asV\u63a3
(lp2881
I2
asV\u80a5
(lp2882
I4
asV\u6124
(lp2883
I1
asV\u6da7
(lp2884
I1
asV\u5cad
(lp2885
I1
asV\u6aa9
(lp2886
I1
asV\u57ab
(lp2887
I1
asV\u7786
(lp2888
I1
asV\u94ad
(lp2889
I1
asV\u952c
(lp2890
I1
asV\u91af
(lp2891
I2
aI1
asV\u522e
(lp2892
I7
aI4
aI3
aI2
asV\u7eb1
(lp2893
I1
asV\u7f30
(lp2894
I1
asV\u5bb3
(lp2895
I2
asV\u5934
(lp2896
I6
aI2
aI1
asV\u62b9
(lp2897
I2
asV\u4338
(lp2898
I1
asV\u7ede
(lp2899
I2
aI1
asV\u6d3c
(lp2900
I1
asV\u7740
(lp2901
I4
aI3
aI2
asV\u5442
(lp2902
I2
asV\u8bb7
(lp2903
I1
asV\u9e46
(lp2904
I1
asV\u64cd
(lp2905
I3
asV\u654c
(lp2906
I4
aI1
asV\u4f8d
(lp2907
I2
asV\U0002a24e
(lp2908
I1
asV\u4ed1
(lp2909
I2
aI1
asV\u8bd3
(lp2910
I1
asV\U00028c52
(lp2911
I1
asV\u505a
(lp2912
I3
aI2
asV\u9cdd
(lp2913
I1
asV\u39df
(lp2914
I1
asV\u6760
(lp2915
I2
asV\u4e66
(lp2916
I3
aI2
aI1
asV\u8377
(lp2917
I3
asV\u77eb
(lp2918
I1
asV\u94ed
(lp2919
I1
asV\u956c
(lp2920
I1
asV\u51ef
(lp2921
I1
asV\u7ef1
(lp2922
I1
asV\u9974
(lp2923
I1
asV\u65f7
(lp2924
I1
asV\u82f9
(lp2925
I3
aI2
aI1
asV\u607a
(lp2926
I1
asV\u6cfd
(lp2927
I6
aI1
asV\u9601
(lp2928
I1
asV\u78c1
(lp2929
I2
asV\u7303
(lp2930
I1
asV\u5e86
(lp2931
I3
aI2
aI1
asV\U00029a09
(lp2932
I1
asV\u5b88
(lp2933
I3
aI2
asV\u988a
(lp2934
I2
aI1
asV\u810f
(lp2935
I3
aI2
aI1
asV\u4e11
(lp2936
I4
aI3
aI2
asV\u8f90
(lp2937
I1
asV\u9517
(lp2938
I1
asV\u9a98
(lp2939
I1
asV\u5219
(lp2940
I1
asV\u5398
(lp2941
I2
asV\uff1b
(lp2942
I3
asV\u5c1d
(lp2943
I1
asV\u591f
(lp2944
I3
aI1
asV\u9a9e
(lp2945
I1
asV\u6323
(lp2946
I1
asV\u6025
(lp2947
I4
aI3
aI2
asV\u8d27
(lp2948
I1
asV\u4ea6
(lp2949
I4
aI2
asV\u951d
(lp2950
I1
asV\u4f73
(lp2951
I3
aI2
asV\u92ae
(lp2952
I1
asV\u5e31
(lp2953
I1
asV\u9cb2
(lp2954
I1
asV\u4c9e
(lp2955
I1
asV\u901f
(lp2956
I3
asV\u8537
(lp2957
I1
asV\u8239
(lp2958
I3
aI2
asV\u83b8
(lp2959
I1
asV\u80ba
(lp2960
I2
asV\u6dbc
(lp2961
I3
aI2
asV\u5343
(lp2962
I6
aI4
aI3
aI2
asV\u94c2
(lp2963
I1
asV\u5a08
(lp2964
I1
asV\u7ec6
(lp2965
I4
aI3
aI2
aI1
asV\uff18
(lp2966
I3
aI2
asV\u62ce
(lp2967
I3
aI2
asV\u8e51
(lp2968
I1
asV\u8fd0
(lp2969
I1
asV\u9609
(lp2970
I1
asV\u9557
(lp2971
I1
asV\u76d6
(lp2972
I1
asV\u7259
(lp2973
I2
asV\u53d8
(lp2974
I2
aI1
asV\u9a76
(lp2975
I1
asV\U00028c4e
(lp2976
I1
asV\u98a4
(lp2977
I2
aI1
asV\u67e0
(lp2978
I1
asV\u6363
(lp2979
I4
aI1
asV\u64e2
(lp2980
I2
asV\u8d3c
(lp2981
I1
asV\u6ee6
(lp2982
I1
asV\u8a69
(lp2983
I2
asV\u8be8
(lp2984
I1
asV\u95ec
(lp2985
I1
asV\u72ee
(lp2986
I1
asV\u9e71
(lp2987
I1
asV\u9875
(lp2988
I2
aI1
asV\U000299f4
(lp2989
I1
asV\u6577
(lp2990
I2
asV\u6279
(lp2991
I3
aI2
asV\u83f8
(lp2992
I1
asV\u8f7b
(lp2993
I4
aI2
aI1
asV\u9efe
(lp2994
I1
asV\u897f
(lp2995
I3
aI2
asV\u8afe
(lp2996
I2
asV\u7981
(lp2997
I4
aI2
asV\u7800
(lp2998
I1
asV\u9c83
(lp2999
I1
asV\u5f85
(lp3000
I3
aI2
asV\U00029400
(lp3001
I1
asV\u9589
(lp3002
I3
aI2
asV\u5408
(lp3003
I3
aI2
asV\u888b
(lp3004
I2
asV\u8edf
(lp3005
I2
asV\u8e8f
(lp3006
I1
asV\u8191
(lp3007
I1
asV\u6795
(lp3008
I3
aI2
asV\u7a97
(lp3009
I4
aI3
aI2
asV\u5916
(lp3010
I4
aI2
asV\u5c18
(lp3011
I1
asV\u90d8
(lp3012
I2
asV\u7f1a
(lp3013
I1
asV\u539d
(lp3014
I4
asV\u951e
(lp3015
I1
asV\u4ca3
(lp3016
I1
asV\u6b22
(lp3017
I1
asV\u4fa5
(lp3018
I2
aI1
asV\u4e24
(lp3019
I4
aI3
aI2
aI1
asV\u6126
(lp3020
I1
asV\u65a9
(lp3021
I1
asV\u8428
(lp3022
I3
aI1
asV\u672a
(lp3023
I2
asV\u7eaf
(lp3024
I2
aI1
asV\u7d2e
(lp3025
I3
aI2
asV\u54b3
(lp3026
I3
asV\u5634
(lp3027
I2
asV\u6c38
(lp3028
I4
aI3
aI2
asV\u83bd
(lp3029
I2
asV\u653e
(lp3030
I3
aI2
asV\u79c1
(lp3031
I3
aI2
asV\u7840
(lp3032
I1
asV\u9cc3
(lp3033
I1
asV\u9b42
(lp3034
I4
asV\u5fc5
(lp3035
I2
asV\u9e44
(lp3036
I2
aI1
asV\u5146
(lp3037
I2
asV\u75c9
(lp3038
I1
asV\u8bcd
(lp3039
I2
aI1
asV\u8d4e
(lp3040
I1
asV\u61d1
(lp3041
I1
asV\u6654
(lp3042
I1
asV\u5956
(lp3043
I2
aI1
asV\u4ee5
(lp3044
I3
asV\u70db
(lp3045
I1
asV\u7f5a
(lp3046
I1
asV\u36df
(lp3047
I1
asV\u955e
(lp3048
I1
asV\u6860
(lp3049
I1
asV\u6b62
(lp3050
I3
aI2
asV\u8fe5
(lp3051
I4
asV\u82e7
(lp3052
I2
aI1
asV\u65e9
(lp3053
I2
asV\u9a6c
(lp3054
I6
aI4
aI3
aI2
aI1
asV\u7eef
(lp3055
I1
asV\u7070
(lp3056
I3
aI2
asV\u94f3
(lp3057
I1
asV\u7372
(lp3058
I3
aI2
asV\u97f5
(lp3059
I1
asV\u803f
(lp3060
I2
asV\u8df9
(lp3061
I1
asV\u9aef
(lp3062
I2
asV\u8f7a
(lp3063
I1
asV\u63fd
(lp3064
I1
asV\u585e
(lp3065
I4
aI3
aI2
asV\u9880
(lp3066
I1
asV\U0002966a
(lp3067
I1
asV\u7f05
(lp3068
I1
asV\u5e84
(lp3069
I4
aI3
aI2
asV\u9f17
(lp3070
I1
asV\u3509
(lp3071
I1
asV\u9488
(lp3072
I1
asV\u680b
(lp3073
I2
aI1
asV\u8e0f
(lp3074
I3
aI2
asV\u8111
(lp3075
I3
aI2
aI1
asV\u6392
(lp3076
I3
asV\u8715
(lp3077
I1
asV\u9507
(lp3078
I1
asV\u5996
(lp3079
I2
asV\u5c98
(lp3080
I1
asV\u501b
(lp3081
I2
asV\u9f9a
(lp3082
I1
asV\u9c9b
(lp3083
I1
asV\u961f
(lp3084
I1
asV\u359e
(lp3085
I1
asV\u8c23
(lp3086
I1
asV\u8ba2
(lp3087
I2
aI1
asV\u4f25
(lp3088
I1
asV\u4ea4
(lp3089
I2
asV\u67aa
(lp3090
I1
asV\u95f3
(lp3091
I1
asV\u9e2f
(lp3092
I1
asV\u5e1c
(lp3093
I1
asV\u6349
(lp3094
I3
aI2
asV\u62c8
(lp3095
I2
asV\u8d39
(lp3096
I2
aI1
asV\u803b
(lp3097
I1
asV\u633d
(lp3098
I2
asV\u5941
(lp3099
I1
asV\u5c43
(lp3100
I1
asV\u867e
(lp3101
I1
asV\u9ec4
(lp3102
I4
aI3
aI2
aI1
asV\u7247
(lp3103
I4
asV\u51c6
(lp3104
I4
aI3
aI2
asV\u9549
(lp3105
I1
asV\u94c8
(lp3106
I1
asV\u6151
(lp3107
I1
asV\u63d2
(lp3108
I2
asV\u86d4
(lp3109
I3
asV\u7a57
(lp3110
I5
asV\u9cd8
(lp3111
I1
asV\u7751
(lp3112
I1
asV\u8be2
(lp3113
I4
aI2
aI1
asV\u4f65
(lp3114
I1
asV\u4ee4
(lp3115
I4
asV\u6267
(lp3116
I1
asV\u62fe
(lp3117
I2
asV\u9e6f
(lp3118
I1
asV\u5dee
(lp3119
I9
aI4
aI2
asV\u5171
(lp3120
I4
aI3
asV\u5473
(lp3121
I3
aI2
asV\u53f2
(lp3122
I4
asV\u76f4
(lp3123
I4
aI2
asV\u6cf8
(lp3124
I1
asV\u607b
(lp3125
I1
asV\u62fc
(lp3126
I4
aI3
aI2
asV\u867f
(lp3127
I1
asV\u9881
(lp3128
I2
aI1
asV\u9801
(lp3129
I2
asV\u5f04
(lp3130
I4
aI2
asV\u7387
(lp3131
I4
asV\u9006
(lp3132
I3
aI2
asV\u9489
(lp3133
I2
aI1
asV\u9508
(lp3134
I2
aI1
asV\u898b
(lp3135
I3
aI2
asV\u960a
(lp3136
I1
asV\u5520
(lp3137
I1
asV\u8f8f
(lp3138
I1
asV\u8c0e
(lp3139
I1
asV\u8110
(lp3140
I1
asV\u6593
(lp3141
I1
asV\u8212
(lp3142
I2
asV\u8695
(lp3143
I1
asV\u7b97
(lp3144
I3
aI2
asV\u7816
(lp3145
I1
asV\u9c99
(lp3146
I1
asV\u519b
(lp3147
I4
aI1
asV\u529d
(lp3148
I1
asV\u731c
(lp3149
I4
aI3
aI2
asV\u5f84
(lp3150
I1
asV\u6920
(lp3151
I1
asV\u6da3
(lp3152
I1
asV\u69da
(lp3153
I1
asV\u4f24
(lp3154
I4
aI1
asV\u63a7
(lp3155
I2
asV\u64a9
(lp3156
I2
asV\u59ab
(lp3157
I1
asV\u7aad
(lp3158
I1
asV\u7b2c
(lp3159
I4
asV\u54dc
(lp3160
I1
asV\u7792
(lp3161
I1
asV\u5409
(lp3162
I4
aI3
asV\u6bb7
(lp3163
I4
asV\u6cb9
(lp3164
I2
asV\u8d38
(lp3165
I1
asV\u4e3a
(lp3166
I2
aI1
asV\u62bd
(lp3167
I3
aI2
asV\u433c
(lp3168
I1
asV\u7a0e
(lp3169
I1
asV\u7ec5
(lp3170
I1
asV\u9f44
(lp3171
I1
asV\u94c9
(lp3172
I1
asV\u9548
(lp3173
I1
asV\u89cb
(lp3174
I1
asV\u6b4c
(lp3175
I2
asV\u8c4e
(lp3176
I3
aI2
asV\u8150
(lp3177
I2
asV\u85d3
(lp3178
I1
asV\U0002a252
(lp3179
I1
asV\u84cb
(lp3180
I3
asV\u7856
(lp3181
I1
asV\u9cd9
(lp3182
I1
asV\u5965
(lp3183
I2
aI1
asV\u51db
(lp3184
I1
asV\u9e5a
(lp3185
I1
asV\u72dd
(lp3186
I1
asV\u745e
(lp3187
I2
asV\u88e1
(lp3188
I4
aI2
asV\u433a
(lp3189
I1
asV\u6ee5
(lp3190
I1
asV\u6f64
(lp3191
I3
aI2
asV\U000299eb
(lp3192
I1
asV\u9aed
(lp3193
I3
aI2
asV\u433d
(lp3194
I1
asV\u9e3c
(lp3195
I1
asV\u5170
(lp3196
I1
asV\u55f3
(lp3197
I1
asV\u5272
(lp3198
I2
asV\u56f5
(lp3199
I1
asV\u8bf7
(lp3200
I4
aI3
aI2
aI1
asV\u81fb
(lp3201
I2
asV\u793e
(lp3202
I2
asV\u9e6b
(lp3203
I1
asV\u7801
(lp3204
I2
aI1
asV\u7980
(lp3205
I1
asV\u5d03
(lp3206
I1
asV\u9a82
(lp3207
I2
aI1
asV\u5e05
(lp3208
I1
asV\u9f84
(lp3209
I1
asV\u7086
(lp3210
I2
asV\U0002b409
(lp3211
I1
asV\u4f0f
(lp3212
I2
asV\u8292
(lp3213
I3
asV\u9896
(lp3214
I1
asV\u7bee
(lp3215
I1
asV\u571f
(lp3216
I3
aI2
asV\u949e
(lp3217
I1
asV\u6821
(lp3218
I2
asV\u8d23
(lp3219
I1
asV\u4e25
(lp3220
I4
aI2
aI1
asV\u8327
(lp3221
I1
asV\u60a6
(lp3222
I1
asV\u8d46
(lp3223
I1
asV\u7f2f
(lp3224
I1
asV\u7cae
(lp3225
I1
asV\u51b0
(lp3226
I3
asV\u9533
(lp3227
I1
asV\u52b2
(lp3228
I1
asV\u9635
(lp3229
I1
asV\u771f
(lp3230
I2
asV\u8b37
(lp3231
I2
asV\u6db8
(lp3232
I2
asV\u4eba
(lp3233
I7
aI4
aI3
aI2
asV\u83bc
(lp3234
I1
asV\u7841
(lp3235
I1
asV\u79c0
(lp3236
I2
asV\u9e45
(lp3237
I2
aI1
asV\u5347
(lp3238
I4
aI2
asV\u6f74
(lp3239
I1
asV\u75c8
(lp3240
I1
asV\u76ca
(lp3241
I2
asV\u8bcc
(lp3242
I1
asV\u4f4f
(lp3243
I3
aI2
asV\u62d2
(lp3244
I3
aI2
asV\u6655
(lp3245
I3
aI1
asV\u5b57
(lp3246
I4
aI3
aI2
asV\u98d6
(lp3247
I1
asV\u7eda
(lp3248
I1
asV\u575f
(lp3249
I1
asV\u94de
(lp3250
I1
asV\u6861
(lp3251
I1
asV\u6dd1
(lp3252
I2
asV\u8d63
(lp3253
I1
asV\u8367
(lp3254
I2
aI1
asV\u996b
(lp3255
I1
asV\u8bf4
(lp3256
I2
aI1
asV\u9a6d
(lp3257
I1
asV\u58d3
(lp3258
I3
aI2
asV\u9573
(lp3259
I1
asV\u72f2
(lp3260
I1
asV\u507f
(lp3261
I1
asV\u6b77
(lp3262
I3
asV\u6c79
(lp3263
I2
aI1
asV\u6bd5
(lp3264
I4
aI3
aI2
aI1
asV\u817b
(lp3265
I1
asV\u677f
(lp3266
I3
aI2
asV\u5b81
(lp3267
I1
asV\U00029a00
(lp3268
I1
asV\u5c04
(lp3269
I2
asV\u7f00
(lp3270
I1
asV\u9608
(lp3271
I1
asV\u950a
(lp3272
I1
asV\u680c
(lp3273
I1
asV\u6210
(lp3274
I3
aI2
asV\u5f2f
(lp3275
I1
asV\u9897
(lp3276
I1
asV\u5b16
(lp3277
I2
asV\u9f99
(lp3278
I4
aI3
aI2
aI1
asV\u5e18
(lp3279
I2
aI1
asV\u529b
(lp3280
I4
aI3
aI2
asV\u9cae
(lp3281
I1
asV\u949f
(lp3282
I5
aI4
aI3
aI2
aI1
asV\u8ba1
(lp3283
I3
aI2
aI1
asV\u8c24
(lp3284
I1
asV\u6326
(lp3285
I1
asV\u8fdd
(lp3286
I1
asV\u7606
(lp3287
I1
asV\u9caf
(lp3288
I1
asV\u7f2e
(lp3289
I1
asV\u73b1
(lp3290
I1
asV\u7230
(lp3291
I4
asV\u5434
(lp3292
I1
asV\u6fb9
(lp3293
I2
asV\u6e38
(lp3294
I4
aI3
aI2
asV\u8d3a
(lp3295
I1
asV\U00029f8b
(lp3296
I1
asV\u94d2
(lp3297
I1
asV\u57b4
(lp3298
I1
asV\u9ec3
(lp3299
I3
asV\u5942
(lp3300
I1
asV\u5dc5
(lp3301
I1
asV\u9648
(lp3302
I2
aI1
asV\u954a
(lp3303
I1
asV\u89cd
(lp3304
I1
asV\u884c
(lp3305
I8
aI4
aI3
aI2
asV\u4f4e
(lp3306
I3
aI2
asV\U0002a250
(lp3307
I1
asV\u989e
(lp3308
I1
asV\u998f
(lp3309
I1
asV\u98d7
(lp3310
I1
asV\u8db8
(lp3311
I1
asV\u5fd9
(lp3312
I4
aI3
aI2
asV\u9e58
(lp3313
I1
asV\u5d5a
(lp3314
I1
asV\u51dd
(lp3315
I2
asV\u505c
(lp3316
I4
aI2
asV\u94df
(lp3317
I1
asV\u575e
(lp3318
I1
asV\u6be1
(lp3319
I1
asV\u4ee3
(lp3320
I4
aI3
aI2
asV\u8eba
(lp3321
I3
aI2
asV\u6c64
(lp3322
I3
aI2
aI1
asV\u80e7
(lp3323
I1
asV\u8366
(lp3324
I2
aI1
asV\u723d
(lp3325
I2
asV\U000299ed
(lp3326
I1
asV\u786c
(lp3327
I2
asV\u7f6e
(lp3328
I4
aI2
asV\u53f1
(lp3329
I7
aI5
aI4
aI3
aI2
asV\u96f3
(lp3330
I1
asV\u95f5
(lp3331
I3
aI1
asV\u6868
(lp3332
I1
asV\u8ff9
(lp3333
I1
asV\U0002b694
(lp3334
I1
asV\u607c
(lp3335
I1
asV\u677e
(lp3336
I4
aI3
aI2
asV\u9a80
(lp3337
I2
aI1
asV\u5e03
(lp3338
I5
aI4
aI3
aI2
asV\u9982
(lp3339
I2
aI1
asV\u9c84
(lp3340
I1
asV\u3007
(lp3341
I2
asV\u5386
(lp3342
I4
aI3
aI2
aI1
asV\u9709
(lp3343
I2
asV\u39d1
(lp3344
I1
asV\u4e16
(lp3345
I4
aI3
asV\u690d
(lp3346
I2
asV\u8d43
(lp3347
I1
asV\u8c0f
(lp3348
I1
asV\u8f8e
(lp3349
I1
asV\u6311
(lp3350
I3
aI2
asV\u6613
(lp3351
I3
aI2
asV\u7817
(lp3352
I1
asV\uff19
(lp3353
I3
aI2
asV\u521b
(lp3354
I2
aI1
asV\u709c
(lp3355
I1
asV\u541f
(lp3356
I2
asV\u779e
(lp3357
I3
aI2
asV\u5df1
(lp3358
I2
asV\u8d25
(lp3359
I2
aI1
asV\u6ca4
(lp3360
I2
aI1
asV\u8027
(lp3361
I1
asV\u549d
(lp3362
I1
asV\u3a2b
(lp3363
I1
asV\u951c
(lp3364
I1
asV\u9633
(lp3365
I3
aI2
aI1
asV\u51b2
(lp3366
I4
aI3
aI2
aI1
asV\u7535
(lp3367
I4
aI3
aI2
aI1
asV\u94b4
(lp3368
I1
asV\u6837
(lp3369
I2
aI1
asV\U00020bb6
(lp3370
I1
asV\u4eb8
(lp3371
I1
asV\u823b
(lp3372
I1
asV\u5a74
(lp3373
I1
asV\u9e43
(lp3374
I1
asV\u86ca
(lp3375
I1
asV\u9cc4
(lp3376
I1
asV\u9047
(lp3377
I3
aI2
asV\u5f20
(lp3378
I3
aI2
aI1
asV\u76c8
(lp3379
I2
asV\u9576
(lp3380
I1
asV\U00028c4f
(lp3381
I1
asV\u4653
(lp3382
I1
asV\u61d2
(lp3383
I1
asV\u7857
(lp3384
I2
aI1
asV\u7ed8
(lp3385
I2
aI1
asV\u725b
(lp3386
I3
aI2
asV\u5321
(lp3387
I2
asV\u915d
(lp3388
I3
aI1
asV\u5cfb
(lp3389
I2
asV\u6769
(lp3390
I1
asV\u996d
(lp3391
I3
aI2
aI1
asV\u78ec
(lp3392
I2
asV\u5c6f
(lp3393
I2
asV\u5371
(lp3394
I2
asV\u72f0
(lp3395
I1
asV\u9575
(lp3396
I1
asV\u94f4
(lp3397
I1
asV\u8877
(lp3398
I2
asV\u8bf6
(lp3399
I1
asV\u8f79
(lp3400
I1
asV\u817d
(lp3401
I1
asV\u9a81
(lp3402
I1
asV\u5501
(lp3403
I2
asV\U00029f83
(lp3404
I1
asV\u9802
(lp3405
I3
aI2
asV\u9c85
(lp3406
I1
asV\u5d04
(lp3407
I1
asV\u9187
(lp3408
I2
asV\u5206
(lp3409
I3
aI2
asV\U0002b689
(lp3410
I1
asV\u5708
(lp3411
I3
aI2
asV\u6b8b
(lp3412
I2
aI1
asV\u540a
(lp3413
I4
aI3
aI2
asV\u6003
(lp3414
I1
asV\u4e0e
(lp3415
I3
aI1
asV\u6291
(lp3416
I4
aI2
asV\u6012
(lp3417
I4
aI2
asV\u5e99
(lp3418
I2
aI1
asV\u5f18
(lp3419
I3
aI2
asV\u739b
(lp3420
I1
asV\u5c1a
(lp3421
I3
asV\u909d
(lp3422
I1
asV\u759f
(lp3423
I1
asV\u4fa3
(lp3424
I1
asV\u6ca5
(lp3425
I1
asV\u8d24
(lp3426
I2
aI1
asV\u6728
(lp3427
I4
aI2
asV\u5bab
(lp3428
I2
aI1
asV\u83b3
(lp3429
I1
asV\u9e2e
(lp3430
I1
asV\u52b1
(lp3431
I1
asV\u77b3
(lp3432
I2
asV\u94b5
(lp3433
I1
asV\u9534
(lp3434
I1
asV\u8572
(lp3435
I1
asV\u663e
(lp3436
I4
aI3
aI1
asV\u5ac1
(lp3437
I3
asV\u5fc3
(lp3438
I4
aI3
aI2
asV\u9cc5
(lp3439
I1
asV\u91c7
(lp3440
I4
aI3
aI2
asV\u69e0
(lp3441
I1
asV\u56c9
(lp3442
I4
aI2
asV\u770d
(lp3443
I1
asV\u8bcb
(lp3444
I1
asV\u9e36
(lp3445
I1
asV\u82d1
(lp3446
I2
asV\u8350
(lp3447
I2
aI1
asV\u67d3
(lp3448
I3
aI2
asV\u6052
(lp3449
I6
aI4
aI1
asV\u44d5
(lp3450
I1
asV\u59d7
(lp3451
I1
asV\u7ed9
(lp3452
I4
aI2
aI1
asV\u5499
(lp3453
I1
asV\u765e
(lp3454
I1
asV\u4fe3
(lp3455
I1
asV\u6862
(lp3456
I2
aI1
asV\u6ce5
(lp3457
I2
asV\u8d64
(lp3458
I4
aI3
aI2
asV\u81e7
(lp3459
I4
asV\u6768
(lp3460
I1
asV\u5beb
(lp3461
I3
aI2
asV\u70e6
(lp3462
I1
asV\u996c
(lp3463
I1
asV\u5def
(lp3464
I1
asV\u9e6e
(lp3465
I1
asV\u72f1
(lp3466
I2
aI1
asV\u5370
(lp3467
I4
aI3
aI2
asV\u77f3
(lp3468
I4
aI3
aI2
asV\u6f92
(lp3469
I2
asV\u94f5
(lp3470
I1
asV\u9574
(lp3471
I1
asV\u95e8
(lp3472
I3
aI2
aI1
asV\u835f
(lp3473
I1
asV\u8f78
(lp3474
I1
asV\u80fd
(lp3475
I3
aI2
asV\u817c
(lp3476
I1
asV\u667e
(lp3477
I2
asV\U00029a01
(lp3478
I1
asV\u7b80
(lp3479
I2
aI1
asV\u7f03
(lp3480
I1
asV\u9882
(lp3481
I2
aI1
asV\u7617
(lp3482
I1
asV\u5609
(lp3483
I2
asV\u948a
(lp3484
I1
asV\u4bc3
(lp3485
I1
asV\u4e8e
(lp3486
I7
aI6
aI5
aI4
aI3
aI2
aI1
asV\u6211
(lp3487
I3
asV\u6092
(lp3488
I2
asV\u9e40
(lp3489
I1
asV\u9a96
(lp3490
I1
asV\u731b
(lp3491
I2
asV\u9c9a
(lp3492
I1
asV\u919c
(lp3493
I3
aI2
asV\u751f
(lp3494
I4
aI3
aI2
asV\u6a21
(lp3495
I5
aI4
aI2
asV\u8ba0
(lp3496
I1
asV\u4f23
(lp3497
I1
asV\u739a
(lp3498
I1
asV\u8c25
(lp3499
I1
asV\u6da4
(lp3500
I1
asV\u82a6
(lp3501
I1
asV\u67a8
(lp3502
I1
asV\u99ac
(lp3503
I5
aI4
aI3
asV\u7d2f
(lp3504
I4
aI2
asV\u7eae
(lp3505
I1
asV\u7231
(lp3506
I2
aI1
asV\u73b0
(lp3507
I2
aI1
asV\u50b2
(lp3508
I4
asV\u75b4
(lp3509
I1
asV\u4e39
(lp3510
I2
asV\u9521
(lp3511
I1
asV\u9649
(lp3512
I1
asV\u94ca
(lp3513
I1
asV\u7f18
(lp3514
I1
asV\u89cc
(lp3515
I1
asV\u6d4f
(lp3516
I1
asV\u4ece
(lp3517
I4
aI2
aI1
asV\u6251
(lp3518
I4
aI3
aI2
aI1
asV\u63d0
(lp3519
I5
aI4
aI3
aI2
asV\u7ad6
(lp3520
I4
aI2
aI1
asV\u9e59
(lp3521
I1
asV\u7fd8
(lp3522
I1
asV\u9cda
(lp3523
I1
asV\u955f
(lp3524
I1
asV\u56de
(lp3525
I4
aI3
aI2
asV\u8be0
(lp3526
I1
asV\u4f63
(lp3527
I4
aI2
asV\u88e2
(lp3528
I1
asV\u5e27
(lp3529
I1
asV\u82e6
(lp3530
I3
aI2
asV\U000299ec
(lp3531
I1
asV\u7891
(lp3532
I2
asV\u7eee
(lp3533
I1
asV\u53f0
(lp3534
I3
aI2
asV\u95f4
(lp3535
I4
aI1
asV\U00029f81
(lp3536
I1
asV\u98a8
(lp3537
I2
asV\u622a
(lp3538
I2
asV\u6cfa
(lp3539
I1
asV\u807d
(lp3540
I3
aI2
asV\u66fe
(lp3541
I2
asV\u7d81
(lp3542
I3
aI2
asV\u9883
(lp3543
I1
asV\u5f02
(lp3544
I1
asV\U00029a04
(lp3545
I1
asV\u7687
(lp3546
I4
aI3
aI2
asV\u7a00
(lp3547
I2
asV\u5189
(lp3548
I3
asV\u8f8d
(lp3549
I1
asV\u8e0c
(lp3550
I1
asV\u9f81
(lp3551
I1
asV\u9e97
(lp3552
I3
aI2
asV\u5d16
(lp3553
I2
asV\u9999
(lp3554
I3
aI2
asV\u9818
(lp3555
I3
aI2
asV\u549b
(lp3556
I1
asV\u529f
(lp3557
I2
asV\u6da1
(lp3558
I1
asV\u8c20
(lp3559
I1
asV\u8ba5
(lp3560
I1
asV\u66a7
(lp3561
I1
asV\u54dd
(lp3562
I1
asV\u9cab
(lp3563
I1
asV\u9e2c
(lp3564
I1
asV\u75b1
(lp3565
I1
asV\u9732
(lp3566
I2
asV\u8d36
(lp3567
I1
asV\u6838
(lp3568
I3
asV\u6b3a
(lp3569
I2
asV\u663c
(lp3570
I1
asV\u62bf
(lp3571
I2
asV\u813e
(lp3572
I2
asV\u5c40
(lp3573
I2
asV\u7f42
(lp3574
I1
asV\u96c7
(lp3575
I2
asV\u5546
(lp3576
I3
aI2
asV\u51c9
(lp3577
I2
aI1
asV\u534a
(lp3578
I3
aI2
asV\u4e4c
(lp3579
I3
aI2
aI1
asV\U0002a254
(lp3580
I1
asV\u7ed7
(lp3581
I1
asV\u94db
(lp3582
I1
asV\u7b5a
(lp3583
I1
asV\u7f20
(lp3584
I2
aI1
asV\u6de1
(lp3585
I3
aI2
asV\u6c60
(lp3586
I2
asV\u88e3
(lp3587
I1
asV\u83ba
(lp3588
I1
asV\u8be5
(lp3589
I2
aI1
asV\u6566
(lp3590
I2
asV\u836a
(lp3591
I1
asV\u9e6c
(lp3592
I1
asV\u7aef
(lp3593
I2
asV\u7ebc
(lp3594
I1
asV\u95f1
(lp3595
I1
asV\u9274
(lp3596
I2
aI1
asV\u4ef7
(lp3597
I1
asV\u8d76
(lp3598
I3
aI2
aI1
asV\u830e
(lp3599
I2
aI1
asV\u67fd
(lp3600
I1
asV\u4feb
(lp3601
I1
asV\u62ff
(lp3602
I3
aI2
asV\u817e
(lp3603
I2
aI1
asV\u9c80
(lp3604
I1
asV\u9f82
(lp3605
I1
asV\u9b05
(lp3606
I2
asV\u9a84
(lp3607
I1
asV\u9607
(lp3608
I1
asV\u54c0
(lp3609
I2
asV\U0002b088
(lp3610
I1
asV\u8c0b
(lp3611
I2
aI1
asV\u4e8c
(lp3612
I4
aI3
aI2
asV\u8315
(lp3613
I1
asV\U000299ef
(lp3614
I1
asV\u603b
(lp3615
I3
aI1
asV\u9898
(lp3616
I2
aI1
asV\u5b9a
(lp3617
I3
aI2
asV\u8d21
(lp3618
I1
asV\u4ca0
(lp3619
I1
asV\U0002afa2
(lp3620
I1
asV\u60a8
(lp3621
I3
asV\u9f8b
(lp3622
I1
asV\u7f2d
(lp3623
I1
asV\u7eac
(lp3624
I1
asV\u601c
(lp3625
I1
asV\u7531
(lp3626
I4
aI2
asV\u94b0
(lp3627
I1
asV\u57b2
(lp3628
I1
asV\u548f
(lp3629
I1
asV\u6bba
(lp3630
I3
aI2
asV\u623f
(lp3631
I2
asV\u7174
(lp3632
I1
asV\u9cc0
(lp3633
I1
asV\u9647
(lp3634
I1
asV\u5149
(lp3635
I3
aI2
asV\U00028c4b
(lp3636
I1
asV\u4f4d
(lp3637
I2
asV\u89ce
(lp3638
I1
asV\u6551
(lp3639
I2
asV\u62d4
(lp3640
I2
asV\u9e57
(lp3641
I1
asV\u98d8
(lp3642
I4
aI2
aI1
asV\u545b
(lp3643
I1
asV\u91ce
(lp3644
I2
asV\u575d
(lp3645
I1
asV\u96dc
(lp3646
I3
aI2
asV\u6c24
(lp3647
I2
asV\u8d61
(lp3648
I1
asV\u8d51
(lp3649
I1
asV\u8863
(lp3650
I4
aI3
aI2
asV\u60e8
(lp3651
I1
asV\u63ea
(lp3652
I2
asV\u7eec
(lp3653
I1
asV\u9a6f
(lp3654
I1
asV\U000299ee
(lp3655
I1
asV\u9571
(lp3656
I1
asV\u57a9
(lp3657
I1
asV\u5375
(lp3658
I4
asV\u8df6
(lp3659
I1
asV\u8bfa
(lp3660
I1
asV\u66fc
(lp3661
I3
asV\u627f
(lp3662
I2
asV\u5c81
(lp3663
I4
aI1
asV\u9983
(lp3664
I1
asV\u5e02
(lp3665
I3
aI2
asV\u9a85
(lp3666
I1
asV\u7406
(lp3667
I4
aI3
aI2
asV\u7089
(lp3668
I1
asV\u8d8b
(lp3669
I1
asV\u8e8d
(lp3670
I3
aI2
asV\u680e
(lp3671
I1
asV\u6491
(lp3672
I1
asV\u5c82
(lp3673
I1
asV\u6295
(lp3674
I2
asV\u8314
(lp3675
I1
asV\u5f97
(lp3676
I3
aI2
asV\u7c16
(lp3677
I1
asV\u5899
(lp3678
I2
aI1
asV\U00029805
(lp3679
I1
asV\u539f
(lp3680
I3
aI2
asV\u901e
(lp3681
I4
asV\u6ca1
(lp3682
I4
aI3
aI2
aI1
asV\u8d20
(lp3683
I1
asV\u4e22
(lp3684
I2
aI1
asV\u6b24
(lp3685
I1
asV\u67a7
(lp3686
I1
asV\u8230
(lp3687
I2
aI1
asV\u822a
(lp3688
I4
aI3
asV\u7ead
(lp3689
I1
asV\u7f2c
(lp3690
I1
asV\u94b1
(lp3691
I2
aI1
asV\u7530
(lp3692
I2
asV\u51b3
(lp3693
I2
aI1
asV\u9632
(lp3694
I3
aI2
asV\u8c36
(lp3695
I1
asV\u9f0b
(lp3696
I1
asV\u7434
(lp3697
I2
asV\u7cc1
(lp3698
I1
asV\u79c3
(lp3699
I4
aI2
aI1
asV\u9e42
(lp3700
I1
asV\u9ac5
(lp3701
I1
asV\u5446
(lp3702
I4
aI3
aI2
asV\u5148
(lp3703
I2
asV\u6dcb
(lp3704
I3
asV\u524a
(lp3705
I2
asV\u8eff
(lp3706
I1
asV\u8bcf
(lp3707
I1
asV\u8fb9
(lp3708
I1
asV\u6652
(lp3709
I3
aI2
aI1
asV\u8038
(lp3710
I1
asV\u5fd7
(lp3711
I3
aI2
asV\u4e38
(lp3712
I2
asV\u98d9
(lp3713
I1
asV\u9a97
(lp3714
I1
asV\u7a8e
(lp3715
I1
asV\u575c
(lp3716
I1
asV\u6ce1
(lp3717
I2
asV\u8d60
(lp3718
I1
asV\u89e3
(lp3719
I7
aI4
aI3
aI2
asV\u60e9
(lp3720
I4
aI1
asV\u5a05
(lp3721
I1
asV\u626a
(lp3722
I1
asV\u7eed
(lp3723
I1
asV\u786e
(lp3724
I2
aI1
asV\u94f1
(lp3725
I1
asV\u9570
(lp3726
I2
aI1
asV\u5374
(lp3727
I1
asV\u8ff7
(lp3728
I3
aI2
asV\u98e8
(lp3729
I1
asV\u88f9
(lp3730
I3
aI2
asV\u877c
(lp3731
I1
asV\u63ff
(lp3732
I1
asV\u5c01
(lp3733
I3
aI2
asV\u8bc1
(lp3734
I1
asV\U00029a05
(lp3735
I1
asV\u6d17
(lp3736
I2
asV\u9707
(lp3737
I2
asV\u9486
(lp3738
I1
asV\u9009
(lp3739
I4
aI1
asV\u5188
(lp3740
I1
asV\u728a
(lp3741
I1
asV\u4e0d
(lp3742
I4
aI3
aI2
asV\u8f8c
(lp3743
I1
asV\u95ee
(lp3744
I1
asV\u8113
(lp3745
I1
asV\u826f
(lp3746
I2
asV\uff17
(lp3747
I3
aI2
asV\u9c96
(lp3748
I1
asV\u5819
(lp3749
I2
asV\u8bc2
(lp3750
I1
asV\u951b
(lp3751
I1
asV\u9a9a
(lp3752
I1
asV\U0002b61d
(lp3753
I1
asV\u8c21
(lp3754
I1
asV\u6da0
(lp3755
I1
asV\u6ea2
(lp3756
I3
aI2
asV\u8ba4
(lp3757
I2
aI1
asV\u4727
(lp3758
I1
asV\u81a8
(lp3759
I2
asV\u7574
(lp3760
I1
asV\u8346
(lp3761
I1
asV\u5e2d
(lp3762
I2
asV\u76b2
(lp3763
I1
asV\u653b
(lp3764
I2
asV\u663d
(lp3765
I1
asV\u7acb
(lp3766
I2
asV\u80be
(lp3767
I2
aI1
asV\u5c41
(lp3768
I6
asV\u7943
(lp3769
I1
asV\u7ec2
(lp3770
I1
asV\u5bc4
(lp3771
I3
aI2
asV\u6e58
(lp3772
I2
asV\u94c6
(lp3773
I1
asV\u6d4b
(lp3774
I1
asV\u3ce0
(lp3775
I1
asV\u684c
(lp3776
I3
aI2
asV\U0002a255
(lp3777
I1
asV\u7f57
(lp3778
I1
asV\u9cd6
(lp3779
I1
asV\u7859
(lp3780
I1
asV\u955b
(lp3781
I1
asV\u77dc
(lp3782
I2
asV\U0002b35f
(lp3783
I1
asV\u6c61
(lp3784
I2
asV\u73d1
(lp3785
I1
asV\u6ee2
(lp3786
I1
asV\u6a65
(lp3787
I1
asV\u8be4
(lp3788
I1
asV\u84e6
(lp3789
I1
asV\u8069
(lp3790
I1
asV\u81e8
(lp3791
I3
aI2
asV\u9e6d
(lp3792
I1
asV\u58ee
(lp3793
I2
aI1
asV\u95f0
(lp3794
I1
asV\u5173
(lp3795
I5
aI3
aI2
aI1
asV\u76f2
(lp3796
I2
asV\u7275
(lp3797
I3
aI2
aI1
asV\u7a7f
(lp3798
I3
aI2
asV\u8f77
(lp3799
I1
asV\u6cf6
(lp3800
I1
asV\u867d
(lp3801
I1
asV\u4f2b
(lp3802
I1
asV\u5f81
(lp3803
I4
aI2
asV\u9a83
(lp3804
I1
asV\u5d02
(lp3805
I1
asV\u7985
(lp3806
I1
asV\u9487
(lp3807
I1
asV\u5706
(lp3808
I1
asV\u7389
(lp3809
I3
aI2
asV\u4e8b
(lp3810
I4
aI2
asV\u7b56
(lp3811
I2
asV\u8c0c
(lp3812
I1
asV\u6293
(lp3813
I3
aI2
asV\u6512
(lp3814
I1
asV\u5c97
(lp3815
I1
asV\u7f16
(lp3816
I3
aI2
aI1
asV\u591a
(lp3817
I3
aI2
asV\u559d
(lp3818
I3
aI2
asV\u6e20
(lp3819
I2
asV\u8d22
(lp3820
I1
asV\u5750
(lp3821
I3
aI2
asV\U00029f87
(lp3822
I1
asV\u6726
(lp3823
I2
asV\u7eab
(lp3824
I1
asV\u7dad
(lp3825
I3
asV\u54c1
(lp3826
I2
asV\u52b3
(lp3827
I4
aI1
asV\u9532
(lp3828
I4
aI1
asV\u51b5
(lp3829
I1
asV\u54df
(lp3830
I1
asV\u8cb7
(lp3831
I2
asV\u8bb9
(lp3832
I1
asV\u975e
(lp3833
I4
asV\u65bd
(lp3834
I4
aI2
asV\u80bf
(lp3835
I1
asV\u433e
(lp3836
I1
asV\u8be1
(lp3837
I1
asV\u6a0a
(lp3838
I3
asV\u94c7
(lp3839
I1
asV\U00028c4c
(lp3840
I1
asV\u62d3
(lp3841
I2
asV\u8054
(lp3842
I2
aI1
asV\u9cd7
(lp3843
I1
asV\u56db
(lp3844
I4
aI3
aI2
asV\u9166
(lp3845
I1
asV\u545c
(lp3846
I1
asV\u70df
(lp3847
I3
aI2
aI1
asV\u535e
(lp3848
I3
aI2
asV\u4fe1
(lp3849
I4
aI3
aI2
asV\u4e60
(lp3850
I1
asV\u8d62
(lp3851
I2
aI1
asV\u70e7
(lp3852
I2
aI1
asV\u54e5
(lp3853
I5
asV\u7d10
(lp3854
I3
asV\u63e9
(lp3855
I2
asV\u843d
(lp3856
I3
aI2
asV\u7eeb
(lp3857
I1
asV\U00029670
(lp3858
I1
asV\u9572
(lp3859
I1
asV\u5074
(lp3860
I3
aI2
asV\u6cf7
(lp3861
I1
asV\U00029668
(lp3862
I1
asV\u8bf9
(lp3863
I1
asV\u497a
(lp3864
I1
asV\u7f01
(lp3865
I1
asV\u7e41
(lp3866
I2
asV\U00029a03
(lp3867
I1
asV\u9884
(lp3868
I2
aI1
asV\u5786
(lp3869
I1
asV\u4e0b
(lp3870
I3
aI2
asV\u680f
(lp3871
I2
aI1
asV\U0002a690
(lp3872
I1
asV\u9669
(lp3873
I1
asV\u6845
(lp3874
I2
asV\u961b
(lp3875
I1
asV\u6f6e
(lp3876
I2
asV\u551d
(lp3877
I1
asV\u949c
(lp3878
I1
asV\u501f
(lp3879
I4
aI3
aI2
asV\u7978
(lp3880
I2
aI1
asV\u8427
(lp3881
I2
aI1
asV\u6270
(lp3882
I1
asV\u9e2b
(lp3883
I1
asV\u76c6
(lp3884
I2
asV\u5d2d
(lp3885
I1
asV\u9cac
(lp3886
I1
asV\u9ca4
(lp3887
I1
asV\u75b2
(lp3888
I2
asV\u8c37
(lp3889
I4
aI2
asV\u64bc
(lp3890
I3
aI2
asV\u603f
(lp3891
I1
asV\u7ec0
(lp3892
I1
asV\u98c4
(lp3893
I3
aI2
asV\u37c6
(lp3894
I1
asV\u72c8
(lp3895
I1
asV\u4e4b
(lp3896
I4
aI3
aI2
asV\u8574
(lp3897
I3
aI1
asV\u8d4d
(lp3898
I1
asV\U0002a84f
(lp3899
I1
asV\u8bce
(lp3900
I1
asV\u6751
(lp3901
I3
aI2
asV\u6253
(lp3902
I4
aI3
aI2
asV\u8155
(lp3903
I2
asV\u7c9d
(lp3904
I1
asV\u5b59
(lp3905
I1
asV\u9ad8
(lp3906
I4
aI3
aI2
asV\u955d
(lp3907
I1
asV\u94dc
(lp3908
I2
aI1
asV\u6ee0
(lp3909
I1
asV\u88e4
(lp3910
I1
asV\u6467
(lp3911
I4
asV\u67d0
(lp3912
I2
asV\u8369
(lp3913
I1
asV\u62e8
(lp3914
I2
aI1
asV\u5e6b
(lp3915
I3
aI2
asV\u81ea
(lp3916
I4
aI3
aI2
asV\u5bee
(lp3917
I2
asV\u5771
(lp3918
I2
asV\u56f0
(lp3919
I4
aI3
aI2
asV\u54d2
(lp3920
I1
asV\u6b79
(lp3921
I2
asV\u877e
(lp3922
I1
asV\u63fe
(lp3923
I1
asV\u5f00
(lp3924
I2
aI1
asV\u9885
(lp3925
I1
asV\u5904
(lp3926
I1
asV\u9606
(lp3927
I1
asV\u8f8b
(lp3928
I1
asV\u900a
(lp3929
I2
aI1
asV\U00028e03
(lp3930
I1
asV\u6691
(lp3931
I3
asV\u5982
(lp3932
I4
aI3
asV\u77ff
(lp3933
I1
asV\u8114
(lp3934
I1
asV\u9a99
(lp3935
I1
asV\u781a
(lp3936
I1
asV\u949d
(lp3937
I1
asV\u751c
(lp3938
I3
aI2
asV\u4f20
(lp3939
I6
aI2
aI1
asV\u8ba3
(lp3940
I1
asV\u6c22
(lp3941
I1
asV\u6924
(lp3942
I1
asV\u6328
(lp3943
I3
aI2
asV\u602a
(lp3944
I4
asV\u9cad
(lp3945
I1
asV\u76b1
(lp3946
I2
aI1
asV\u5730
(lp3947
I4
aI3
aI2
asV\U0002b688
(lp3948
I1
asV\u853c
(lp3949
I1
asV\u7ec1
(lp3950
I1
asV\u358a
(lp3951
I1
asV\u75c7
(lp3952
I3
aI2
asV\u9646
(lp3953
I2
aI1
asV\u990d
(lp3954
I1
asV\u8d4c
(lp3955
I2
aI1
asV\u89cf
(lp3956
I1
asV\u90b9
(lp3957
I1
asV\u8ce2
(lp3958
I2
asV\u9e56
(lp3959
I1
asV\u7ad9
(lp3960
I4
aI3
aI2
asV\u5b58
(lp3961
I6
aI2
asV\U00029f8e
(lp3962
I1
asV\u94dd
(lp3963
I2
aI1
asV\u955c
(lp3964
I1
asV\u6ee1
(lp3965
I4
aI1
asV\u4f60
(lp3966
I5
aI4
aI3
asV\u8be3
(lp3967
I1
asV\u88e5
(lp3968
I1
asV\u9567
(lp3969
I1
asV\u65e7
(lp3970
I3
aI2
aI1
asV\u62e9
(lp3971
I1
asV\u8368
(lp3972
I1
asV\u5feb
(lp3973
I4
aI3
aI2
asV\u806a
(lp3974
I1
asV\u79ef
(lp3975
I4
aI2
aI1
asV\u9a6e
(lp3976
I1
asV\u56f1
(lp3977
I1
asV\u7269
(lp3978
I2
asV\u50f5
(lp3979
I2
asV\u5174
(lp3980
I2
aI1
asV\u8df7
(lp3981
I1
asV\u87fb
(lp3982
I2
asV\u683e
(lp3983
I1
asV\u9996
(lp3984
I4
aI2
asV\u61ff
(lp3985
I2
asV\u627e
(lp3986
I3
asV\u5e01
(lp3987
I1
asV\u5f80
(lp3988
I4
aI2
asV\u7b03
(lp3989
I1
asV\u9c82
(lp3990
I1
asV\U0002b6db
(lp3991
I1
asV\u7984
(lp3992
I1
asV\u5507
(lp3993
I2
asV\u9686
(lp3994
I3
aI2
asV\u8c0d
(lp3995
I1
asV\u6d8c
(lp3996
I2
asV\u4790
(lp3997
I1
asV\u8015
(lp3998
I2
asV\u796f
(lp3999
I1
asV\u9a19
(lp4000
I3
aI2
asV\u5b98
(lp4001
I7
aI4
aI3
aI2
asV\u989a
(lp4002
I1
asV\u559c
(lp4003
I4
aI3
asV\u529e
(lp4004
I3
aI1
asV\u4fa0
(lp4005
I1
asV\u4ca2
(lp4006
I1
asV\u63a8
(lp4007
I4
aI2
asV\u7f2b
(lp4008
I1
asV\u592f
(lp4009
I2
asV\u5631
(lp4010
I2
aI1
asV\u94b2
(lp4011
I1
asV\u8d37
(lp4012
I1
asV\u8bb8
(lp4013
I4
aI1
asV\u643d
(lp4014
I2
asV\u65bc
(lp4015
I3
aI2
asV\u613f
(lp4016
I3
aI2
aI1
asV\u81f4
(lp4017
I2
asV\u9e41
(lp4018
I1
asV\u9cc2
(lp4019
I1
asV\u8d77
(lp4020
I2
asV\u9547
(lp4021
I1
asV\u96c6
(lp4022
I3
aI2
asV\u6f4b
(lp4023
I1
asV\u90ca
(lp4024
I2
asV\U00028c4d
(lp4025
I1
asV\u8dcc
(lp4026
I2
asV\u8651
(lp4027
I1
asV\u503e
(lp4028
I2
aI1
asV\u6055
(lp4029
I4
asV\u61d4
(lp4030
I2
aI1
asV\u7ed6
(lp4031
I1
asV\u575b
(lp4032
I4
aI2
aI1
asV\u98da
(lp4033
I1
asV\u95dc
(lp4034
I3
aI2
asV\u72de
(lp4035
I1
asV\u4e61
(lp4036
I2
aI1
asV\u6b63
(lp4037
I4
aI3
asV\u6ce2
(lp4038
I9
aI3
asV\u8865
(lp4039
I3
aI2
aI1
asV\u6027
(lp4040
I3
aI2
asV\u7ade
(lp4041
I2
aI1
asV\u8d50
(lp4042
I1
asV\u6269
(lp4043
I1
asV\u80ea
(lp4044
I1
asV\u996f
(lp4045
I1
asV\u94f2
(lp4046
I2
aI1
asV\u7075
(lp4047
I2
aI1
asV\u6d77
(lp4048
I4
aI2
asV\u4ef6
(lp4049
I2
asV\u6a79
(lp4050
I1
asV\u8bf8
(lp4051
I2
aI1
asV\u68fa
(lp4052
I3
asV\u447d
(lp4053
I1
asV\u9b54
(lp4054
I2
as.