(dp1
V\u8000
(lp2
I3
aI2
asV\u8604
(lp3
I1
asV\u8a87
(lp4
I1
asV\u6c08
(lp5
I1
asV\u8f0a
(lp6
I1
asV\u9b28
(lp7
I1
asV\u9810
(lp8
I1
asV\u9f95
(lp9
I1
asV\u6fae
(lp10
I1
asV\u4b9d
(lp11
I1
asV\u7020
(lp12
I1
asV\u74a3
(lp13
I1
asV\u9322
(lp14
I1
asV\u5aa7
(lp15
I1
asV\u7926
(lp16
I1
asV\u9da9
(lp17
I1
asV\u9c28
(lp18
I1
asV\u9d89
(lp19
I1
asV\u8cb3
(lp20
I1
asV\u6e34
(lp21
I3
aI2
asV\u92b7
(lp22
I1
asV\u9136
(lp23
I1
asV\u95b9
(lp24
I1
asV\u9438
(lp25
I1
asV\u98bb
(lp26
I1
asV\u8ac7
(lp27
I1
asV\u8946
(lp28
I1
asV\u8c48
(lp29
I1
asV\u93cd
(lp30
I1
asV\u99d1
(lp31
I1
asV\u7662
(lp32
I1
asV\u7e54
(lp33
I1
asV\u8156
(lp34
I1
asV\u8edf
(lp35
I1
asV\u9060
(lp36
I3
aI2
aI1
asV\U000294e3
(lp37
I1
asV\u5dba
(lp38
I1
asV\u7664
(lp39
I1
asV\u7de9
(lp40
I1
asV\u5c68
(lp41
I1
asV\u9f6a
(lp42
I1
asV\u426c
(lp43
I1
asV\U000289f1
(lp44
I1
asV\u98e9
(lp45
I1
asV\u6b72
(lp46
I1
asV\u943f
(lp47
I1
asV\u55f9
(lp48
I1
asV\u9bfd
(lp49
I1
asV\u9eff
(lp50
I1
asV\u9d7e
(lp51
I1
asV\u8986
(lp52
I2
asV\u6c88
(lp53
I2
asV\u700b
(lp54
I1
asV\u528c
(lp55
I1
asV\u958e
(lp56
I1
asV\u9911
(lp57
I1
asV\u9c13
(lp58
I1
asV\u9b92
(lp59
I1
asV\u9f15
(lp60
I1
asV\u7e94
(lp61
I1
asV\u9418
(lp62
I1
asV\u6519
(lp63
I1
asV\u8b1d
(lp64
I1
asV\u6a9c
(lp65
I1
asV\u4e1f
(lp66
I1
asV\u7121
(lp67
I1
asV\U000293a2
(lp68
I1
asV\u7725
(lp69
I1
asV\u9a27
(lp70
I1
asV\u79a6
(lp71
I1
asV\u78ef
(lp72
I1
asV\u5faa
(lp73
I3
aI2
asV\u62ac
(lp74
I3
aI2
asV\U0002a62f
(lp75
I1
asV\u6c33
(lp76
I1
asV\u6bb2
(lp77
I1
asV\u6f35
(lp78
I1
asV\u9237
(lp79
I1
asV\u983b
(lp80
I1
asV\u5abc
(lp81
I1
asV\u7dbe
(lp82
I1
asV\u95ca
(lp83
I1
asV\u66c4
(lp84
I1
asV\u8cc8
(lp85
I1
asV\u904b
(lp86
I1
asV\u934d
(lp87
I1
asV\u92cc
(lp88
I1
asV\u55ce
(lp89
I1
asV\u9951
(lp90
I1
asV\u5c53
(lp91
I1
asV\u9bd2
(lp92
I1
asV\u9f55
(lp93
I1
asV\u885b
(lp94
I1
asV\u8adc
(lp95
I1
asV\u7463
(lp96
I1
asV\u53e2
(lp97
I1
asV\u76e4
(lp98
I1
asV\u59e6
(lp99
I1
asV\U00029d69
(lp100
I1
asV\U00029fea
(lp101
I1
asV\u866f
(lp102
I1
asV\U000298fa
(lp103
I1
asV\u91d2
(lp104
I1
asV\u4f75
(lp105
I1
asV\u5277
(lp106
I1
asV\u71f6
(lp107
I1
asV\u7e7f
(lp108
I1
asV\u6583
(lp109
I1
asV\u8806
(lp110
I1
asV\u6c89
(lp111
I3
aI2
asV\u8d08
(lp112
I1
asV\u528d
(lp113
I1
asV\u978f
(lp114
I1
asV\u940e
(lp115
I1
asV\u9f59
(lp116
I1
asV\u7d93
(lp117
I1
asV\u5f14
(lp118
I1
asV\u6397
(lp119
I1
asV\u8499
(lp120
I3
aI2
asV\u8518
(lp121
I1
asV\u861a
(lp122
I1
asV\u925b
(lp123
I1
asV\u99b1
(lp124
I1
asV\u95a3
(lp125
I1
asV\u7dda
(lp126
I1
asV\u56a5
(lp127
I1
asV\u9826
(lp128
I1
asV\u9d28
(lp129
I1
asV\u61ab
(lp130
I1
asV\u4f34
(lp131
I3
aI2
asV\u93b7
(lp132
I1
asV\U0002963a
(lp133
I1
asV\u5abd
(lp134
I1
asV\u9d72
(lp135
I1
asV\u8e34
(lp136
I1
asV\u8846
(lp137
I1
asV\u560d
(lp138
I1
asV\u91cb
(lp139
I1
asV\u6e4a
(lp140
I1
asV\U000298d1
(lp141
I1
asV\u5950
(lp142
I1
asV\u9dd3
(lp143
I1
asV\U00021ed5
(lp144
I1
asV\u9f54
(lp145
I1
asV\u8056
(lp146
I1
asV\u8558
(lp147
I1
asV\u6add
(lp148
I1
asV\u8b5c
(lp149
I1
asV\u6fdf
(lp150
I1
asV\u9262
(lp151
I1
asV\u5764
(lp152
I2
asV\u9be7
(lp153
I1
asV\u9ce9
(lp154
I1
asV\u7d68
(lp155
I1
asV\u7e6a
(lp156
I1
asV\u87ef
(lp157
I1
asV\u8df3
(lp158
I3
aI2
asV\u8a72
(lp159
I1
asV\u93f7
(lp160
I1
asV\u99fb
(lp161
I1
asV\u8a6b
(lp162
I1
asV\u8001
(lp163
I2
asV\u71c1
(lp164
I1
asV\u8784
(lp165
I1
asV\u8e8a
(lp166
I4
aI1
asV\u720d
(lp167
I1
asV\u938c
(lp168
I1
asV\u9811
(lp169
I1
asV\u5019
(lp170
I3
aI2
asV\u7d13
(lp171
I1
asV\u7e15
(lp172
I1
asV\u9f94
(lp173
I1
asV\u8598
(lp174
I1
asV\u8a1d
(lp175
I1
asV\u8b9c
(lp176
I1
asV\u8f1f
(lp177
I1
asV\u8c9e
(lp178
I3
aI2
aI1
asV\u7523
(lp179
I1
asV\u72a2
(lp180
I1
asV\u9b27
(lp181
I1
asV\u9c29
(lp182
I1
asV\u7e1d
(lp183
I1
asV\u812b
(lp184
I1
asV\u9eaa
(lp185
I1
asV\u8831
(lp186
I1
asV\u8ab2
(lp187
I1
asV\u5439
(lp188
I3
aI2
asV\u76ba
(lp189
I3
aI2
aI1
asV\u84f4
(lp190
I1
asV\u87c4
(lp191
I1
asV\u53cd
(lp192
I4
aI2
asV\u8eca
(lp193
I1
asV\u924d
(lp194
I1
asV\u93cc
(lp195
I1
asV\u774f
(lp196
I1
asV\u99d0
(lp197
I1
asV\u9d53
(lp198
I1
asV\u9ad2
(lp199
I1
asV\u7e55
(lp200
I1
asV\u8ef8
(lp201
I1
asV\u5225
(lp202
I1
asV\U0002895b
(lp203
I1
asV\u4b9e
(lp204
I1
asV\u8f5f
(lp205
I1
asV\u8cde
(lp206
I1
asV\u9061
(lp207
I1
asV\u52e2
(lp208
I1
asV\u7665
(lp209
I2
aI1
asV\u7b67
(lp210
I1
asV\u7c69
(lp211
I1
asV\u9de8
(lp212
I1
asV\u816b
(lp213
I1
asV\u84ee
(lp214
I1
asV\u8ff4
(lp215
I1
asV\u7377
(lp216
I1
asV\u9479
(lp217
I1
asV\u7cfe
(lp218
I1
asV\u6200
(lp219
I3
aI2
aI1
asV\u862d
(lp220
I1
asV\u8d0a
(lp221
I1
asV\u300c
(lp222
I1
asV\u9b91
(lp223
I1
asV\u7e93
(lp224
I1
asV\u9912
(lp225
I1
asV\u932f
(lp226
I1
asV\u8c9f
(lp227
I1
asV\u8f1e
(lp228
I1
asV\u93a1
(lp229
I1
asV\u9220
(lp230
I1
asV\u95a5
(lp231
I1
asV\u7db0
(lp232
I1
asV\u5fa9
(lp233
I1
asV\u62ab
(lp234
I3
aI2
asV\u802c
(lp235
I1
asV\u672e
(lp236
I1
asV\u8932
(lp237
I1
asV\u6db5
(lp238
I3
aI2
asV\u50b7
(lp239
I1
asV\u9336
(lp240
I1
asV\u5638
(lp241
I1
asV\u9b8b
(lp242
I1
asV\u7060
(lp243
I1
asV\u4e48
(lp244
I4
aI3
aI2
asV\u51cd
(lp245
I1
asV\u74cf
(lp246
I1
asV\u9952
(lp247
I1
asV\u9c54
(lp248
I1
asV\u6adb
(lp249
I1
asV\u93e1
(lp250
I1
asV\u9291
(lp251
I1
asV\u76e3
(lp252
I1
asV\u7162
(lp253
I1
asV\u95e5
(lp254
I1
asV\u7464
(lp255
I1
asV\u78e7
(lp256
I1
asV\u9d6a
(lp257
I1
asV\u84ef
(lp258
I1
asV\u8a70
(lp259
I1
asV\u8972
(lp260
I1
asV\u6df5
(lp261
I1
asV\u9c68
(lp262
I1
asV\u9678
(lp263
I1
asV\u5afb
(lp264
I1
asV\u58be
(lp265
I1
asV\u6514
(lp266
I1
asV\u6301
(lp267
I3
aI2
asV\u6182
(lp268
I1
asV\u8f09
(lp269
I3
aI2
aI1
asV\u6e88
(lp270
I1
asV\u920b
(lp271
I1
asV\u940f
(lp272
I1
asV\u7b11
(lp273
I3
aI2
asV\u7d15
(lp274
I1
asV\u5d17
(lp275
I1
asV\u6396
(lp276
I3
aI2
asV\u6698
(lp277
I1
asV\u8a1b
(lp278
I1
asV\u9321
(lp279
I1
asV\u92a0
(lp280
I1
asV\u9f47
(lp281
I1
asV\u9ba6
(lp282
I1
asV\u9ea8
(lp283
I1
asV\u9daa
(lp284
I1
asV\u87ae
(lp285
I1
asV\u8ab0
(lp286
I1
asV\u89b2
(lp287
I1
asV\u8cb4
(lp288
I1
asV\u96b8
(lp289
I1
asV\u98bc
(lp290
I1
asV\u6643
(lp291
I3
aI2
asV\u64c4
(lp292
I1
asV\u6bc6
(lp293
I1
asV\u8f49
(lp294
I3
aI2
aI1
asV\u524b
(lp295
I1
asV\u914d
(lp296
I3
aI2
asV\u99d2
(lp297
I1
asV\u7d55
(lp298
I1
asV\u8a5b
(lp299
I1
asV\u895d
(lp300
I1
asV\u88dc
(lp301
I1
asV\u9663
(lp302
I1
asV\u9867
(lp303
I1
asV\u5be6
(lp304
I1
asV\u7f69
(lp305
I3
aI2
asV\u9ee8
(lp306
I1
asV\u826b
(lp307
I1
asV\u846f
(lp308
I1
asV\u8af0
(lp309
I1
asV\u8cf4
(lp310
I1
asV\u5077
(lp311
I3
aI2
asV\u7779
(lp312
I4
asV\u98fc
(lp313
I1
asV\u9bd4
(lp314
I1
asV\u6504
(lp315
I1
asV\u8e89
(lp316
I1
asV\u8f08
(lp317
I1
asV\u8435
(lp318
I1
asV\u958f
(lp319
I1
asV\u9812
(lp320
I1
asV\u7d14
(lp321
I1
asV\u6d17
(lp322
I2
asV\u689d
(lp323
I1
asV\u9320
(lp324
I1
asV\U000279a7
(lp325
I1
asV\u9ea9
(lp326
I1
asV\u9d09
(lp327
I1
asV\u7032
(lp328
I1
asV\u4d34
(lp329
I1
asV\u51b7
(lp330
I2
asV\u5236
(lp331
I3
aI2
asV\u943a
(lp332
I1
asV\u993c
(lp333
I1
asV\u7dbf
(lp334
I1
asV\u7e3e
(lp335
I1
asV\u9d1c
(lp336
I1
asV\u8a46
(lp337
I1
asV\u4f48
(lp338
I1
asV\u514c
(lp339
I1
asV\u9852
(lp340
I1
asV\u6f38
(lp341
I1
asV\u558e
(lp342
I1
asV\u88dd
(lp343
I3
aI2
aI1
asV\u8ddf
(lp344
I3
aI2
asV\u6e5e
(lp345
I1
asV\u9360
(lp346
I1
asV\u9d07
(lp347
I1
asV\u99e7
(lp348
I1
asV\u9a66
(lp349
I1
asV\u5ee9
(lp350
I1
asV\u7c6a
(lp351
I1
asV\u8af1
(lp352
I1
asV\u8b70
(lp353
I1
asV\u8cf5
(lp354
I1
asV\u91f7
(lp355
I1
asV\u9276
(lp356
I1
asV\u58fd
(lp357
I1
asV\u597c
(lp358
I1
asV\u9dff
(lp359
I1
asV\u7e7e
(lp360
I1
asV\u6703
(lp361
I1
asV\u8907
(lp362
I1
asV\u8a86
(lp363
I1
asV\u300d
(lp364
I1
asV\u968e
(lp365
I1
asV\u9b90
(lp366
I1
asV\u5d94
(lp367
I1
asV\u7d17
(lp368
I1
asV\u8b1b
(lp369
I1
asV\u4e9e
(lp370
I1
asV\u53a0
(lp371
I1
asV\u50a2
(lp372
I2
aI1
asV\u9425
(lp373
I1
asV\u95a4
(lp374
I1
asV\U00029df0
(lp375
I1
asV\u7fa8
(lp376
I1
asV\u8ef2
(lp377
I1
asV\u8a31
(lp378
I1
asV\u6bb0
(lp379
I1
asV\u8f33
(lp380
I1
asV\u68b2
(lp381
I1
asV\u8db4
(lp382
I3
aI2
asV\u5137
(lp383
I1
asV\u92b6
(lp384
I1
asV\U00029639
(lp385
I1
asV\u983d
(lp386
I1
asV\u7d3f
(lp387
I1
asV\u63c0
(lp388
I1
asV\u944a
(lp389
I1
asV\u8947
(lp390
I1
asV\u934b
(lp391
I1
asV\u8cca
(lp392
I1
asV\u554f
(lp393
I1
asV\u93a2
(lp394
I1
asV\u5c55
(lp395
I3
aI2
asV\u9dd4
(lp396
I1
asV\u62d6
(lp397
I3
aI2
asV\u64da
(lp398
I3
aI2
aI1
asV\u885d
(lp399
I1
asV\U000289dc
(lp400
I1
asV\u9465
(lp401
I1
asV\u95e4
(lp402
I1
asV\u5967
(lp403
I2
aI1
asV\u7e69
(lp404
I1
asV\u7e7d
(lp405
I1
asV\u636b
(lp406
I1
asV\u89a6
(lp407
I1
asV\u77d3
(lp408
I1
asV\u8a71
(lp409
I1
asV\u68f2
(lp410
I1
asV\u6b7f
(lp411
I1
asV\u92f6
(lp412
I1
asV\u5679
(lp413
I1
asV\u8b0a
(lp414
I1
asV\u9283
(lp415
I1
asV\u528f
(lp416
I1
asV\u9c10
(lp417
I1
asV\u5f12
(lp418
I1
asV\u9b95
(lp419
I1
asV\u9a14
(lp420
I1
asV\u6697
(lp421
I3
aI2
asV\u6516
(lp422
I1
asV\u6a9f
(lp423
I1
asV\u95a1
(lp424
I1
asV\u9420
(lp425
I1
asV\u90a3
(lp426
I2
asV\u9722
(lp427
I1
asV\u9d26
(lp428
I1
asV\u64ab
(lp429
I1
asV\u5b2a
(lp430
I1
asV\u68b3
(lp431
I3
aI2
asV\u6f32
(lp432
I1
asV\u8a34
(lp433
I1
asV\u56b7
(lp434
I3
aI2
asV\u593e
(lp435
I3
aI2
aI1
asV\u990a
(lp436
I1
asV\u8b4a
(lp437
I1
asV\u97cd
(lp438
I1
asV\u92cf
(lp439
I1
asV\u7dd1
(lp440
I1
asV\u58d3
(lp441
I3
aI2
aI1
asV\u9862
(lp442
I1
asV\u9bd5
(lp443
I1
asV\u4fdd
(lp444
I4
aI3
asV\u6adf
(lp445
I1
asV\u95e1
(lp446
I1
asV\u9460
(lp447
I1
asV\u9264
(lp448
I1
asV\u7d66
(lp449
I1
asV\u99e9
(lp450
I1
asV\u7868
(lp451
I1
asV\u616e
(lp452
I1
asV\u4c70
(lp453
I1
asV\u7576
(lp454
I3
aI2
aI1
asV\u91f9
(lp455
I1
asV\u9078
(lp456
I1
asV\u737a
(lp457
I1
asV\u7e7c
(lp458
I1
asV\u5aff
(lp459
I1
asV\u8003
(lp460
I3
aI2
asV\u940b
(lp461
I1
asV\u8b8a
(lp462
I3
aI2
aI1
asV\u570d
(lp463
I3
aI2
aI1
asV\u568c
(lp464
I1
asV\u5d11
(lp465
I1
asV\u9813
(lp466
I1
asV\u7def
(lp467
I1
asV\u8098
(lp468
I4
asV\u8f1d
(lp469
I1
asV\u8a1f
(lp470
I1
asV\u7006
(lp471
I1
asV\u52f1
(lp472
I1
asV\u9023
(lp473
I3
aI2
aI1
asV\u7e27
(lp474
I1
asV\u7370
(lp475
I1
asV\u5929
(lp476
I4
asV\u98a8
(lp477
I1
asV\u9baa
(lp478
I1
asV\u61ae
(lp479
I1
asV\u4cb0
(lp480
I1
asV\u8fb2
(lp481
I1
asV\u95b6
(lp482
I1
asV\u9c3b
(lp483
I1
asV\u936e
(lp484
I1
asV\u7f3d
(lp485
I1
asV\u9ebc
(lp486
I2
aI1
asV\u8541
(lp487
I1
asV\u84c0
(lp488
I1
asV\u744b
(lp489
I1
asV\u774d
(lp490
I1
asV\u56cc
(lp491
I1
asV\u9d51
(lp492
I1
asV\u9853
(lp493
I1
asV\u7fd2
(lp494
I1
asV\u9ad4
(lp495
I1
asV\u63da
(lp496
I1
asV\u6a5f
(lp497
I1
asV\U00029951
(lp498
I1
asV\u7063
(lp499
I1
asV\u9365
(lp500
I1
asV\u92e4
(lp501
I1
asV\u9de6
(lp502
I1
asV\u5969
(lp503
I1
asV\u9bea
(lp504
I1
asV\u66ec
(lp505
I1
asV\u8cf0
(lp506
I1
asV\u4af4
(lp507
I1
asV\u55f6
(lp508
I1
asV\u93fa
(lp509
I1
asV\u7a7f
(lp510
I3
aI2
asV\u8a01
(lp511
I1
asV\u8183
(lp512
I1
asV\u6602
(lp513
I3
aI2
asV\u9257
(lp514
I1
asV\u6f87
(lp515
I1
asV\u6c06
(lp516
I2
asV\u958b
(lp517
I3
aI2
aI1
asV\u6a0a
(lp518
I3
asV\u7380
(lp519
I1
asV\u300e
(lp520
I1
asV\u7d10
(lp521
I1
asV\u6416
(lp522
I1
asV\u6e9d
(lp523
I1
asV\u8f1c
(lp524
I1
asV\u5d84
(lp525
I1
asV\u9df9
(lp526
I1
asV\u91a3
(lp527
I1
asV\u92a5
(lp528
I1
asV\u78a9
(lp529
I1
asV\u9928
(lp530
I1
asV\u9a2a
(lp531
I1
asV\u672c
(lp532
I3
aI2
asV\u802e
(lp533
I1
asV\u7d32
(lp534
I1
asV\u5436
(lp535
I1
asV\u5138
(lp536
I1
asV\u7dbb
(lp537
I1
asV\u923a
(lp538
I1
asV\u9ebd
(lp539
I2
aI1
asV\u5834
(lp540
I1
asV\u64c1
(lp541
I1
asV\u6642
(lp542
I1
asV\u95cb
(lp543
I1
asV\u96cd
(lp544
I2
asV\u9463
(lp545
I1
asV\u904e
(lp546
I1
asV\u7d50
(lp547
I1
asV\u59d3
(lp548
I2
asV\u7e52
(lp549
I1
asV\u9ad5
(lp550
I1
asV\u7b54
(lp551
I2
asV\u6158
(lp552
I1
asV\u54e1
(lp553
I1
asV\u91e3
(lp554
I1
asV\u913a
(lp555
I1
asV\u92e5
(lp556
I1
asV\u9364
(lp557
I1
asV\u58e9
(lp558
I1
asV\u5dbd
(lp559
I1
asV\u9a6a
(lp560
I1
asV\u83ef
(lp561
I1
asV\u9c3c
(lp562
I1
asV\u8d70
(lp563
I3
aI2
asV\u69f3
(lp564
I1
asV\u8b74
(lp565
I1
asV\u57f7
(lp566
I2
aI1
asV\u50f9
(lp567
I1
asV\u7dfb
(lp568
I1
asV\u927a
(lp569
I1
asV\u9efd
(lp570
I1
asV\u9bff
(lp571
I1
asV\u8580
(lp572
I1
asV\u6384
(lp573
I1
asV\u8f07
(lp574
I1
asV\u760d
(lp575
I1
asV\u930f
(lp576
I1
asV\u7c11
(lp577
I1
asV\u7d90
(lp578
I1
asV\u9913
(lp579
I1
asV\u8d1b
(lp580
I1
asV\u889e
(lp581
I1
asV\u9c5f
(lp582
I1
asV\u9225
(lp583
I1
asV\u53a4
(lp584
I1
asV\u7aaa
(lp585
I1
asV\u662d
(lp586
I2
asV\u7bc9
(lp587
I1
asV\u8933
(lp588
I1
asV\u9d3b
(lp589
I1
asV\u7e3d
(lp590
I1
asV\u98be
(lp591
I1
asV\u4f47
(lp592
I1
asV\u97cc
(lp593
I1
asV\u9b74
(lp594
I1
asV\u9a55
(lp595
I1
asV\u7bd4
(lp596
I1
asV\u81d8
(lp597
I1
asV\u62da
(lp598
I2
aI1
asV\u6b5f
(lp599
I1
asV\u95e0
(lp600
I1
asV\u96e2
(lp601
I1
asV\u93e4
(lp602
I1
asV\u7aea
(lp603
I1
asV\u87ec
(lp604
I1
asV\u6ef2
(lp605
I1
asV\u8a75
(lp606
I1
asV\u9e7d
(lp607
I1
asV\u5b7f
(lp608
I1
asV\u98fe
(lp609
I1
asV\U0002a600
(lp610
I1
asV\u8a08
(lp611
I1
asV\u958d
(lp612
I1
asV\u908f
(lp613
I1
asV\u5f91
(lp614
I1
asV\u7e10
(lp615
I1
asV\u9d12
(lp616
I1
asV\u7995
(lp617
I1
asV\u6399
(lp618
I3
aI2
aI1
asV\u8218
(lp619
I1
asV\u689f
(lp620
I1
asV\u6b1e
(lp621
I1
asV\u92a3
(lp622
I1
asV\u7522
(lp623
I1
asV\u66ab
(lp624
I1
asV\u792a
(lp625
I1
asV\u842c
(lp626
I1
asV\u7c5c
(lp627
I1
asV\u6fb1
(lp628
I1
asV\u6ab3
(lp629
I1
asV\u9238
(lp630
I1
asV\u513a
(lp631
I1
asV\u7dbd
(lp632
I1
asV\u5c3c
(lp633
I3
asV\u8cc7
(lp634
I1
asV\u8f46
(lp635
I1
asV\u6a48
(lp636
I1
asV\u96cb
(lp637
I1
asV\u694a
(lp638
I2
aI1
asV\u95cd
(lp639
I1
asV\u944c
(lp640
I1
asV\u70cf
(lp641
I1
asV\u734e
(lp642
I1
asV\u7e50
(lp643
I1
asV\u9d52
(lp644
I1
asV\u99d5
(lp645
I3
aI2
aI1
asV\u9854
(lp646
I1
asV\u8edb
(lp647
I1
asV\u615a
(lp648
I1
asV\u68df
(lp649
I1
asV\u57e1
(lp650
I1
asV\u5660
(lp651
I1
asV\u92e3
(lp652
I1
asV\u5562
(lp653
I1
asV\u7064
(lp654
I1
asV\u7ce7
(lp655
I1
asV\u9f66
(lp656
I1
asV\u7be9
(lp657
I1
asV\u596a
(lp658
I1
asV\u9d93
(lp659
I1
asV\u6ff1
(lp660
I1
asV\u5be9
(lp661
I1
asV\u8af3
(lp662
I1
asV\u8a12
(lp663
I1
asV\u93f9
(lp664
I1
asV\u9278
(lp665
I2
aI1
asV\u9dfd
(lp666
I1
asV\u98ff
(lp667
I1
asV\u8f14
(lp668
I1
asV\u5a41
(lp669
I1
asV\u6582
(lp670
I1
asV\u8105
(lp671
I1
asV\u4f86
(lp672
I3
aI2
aI1
asV\u760b
(lp673
I1
asV\u700f
(lp674
I1
asV\u9d92
(lp675
I1
asV\u9915
(lp676
I1
asV\u6417
(lp677
I1
asV\u6e1b
(lp678
I1
asV\u619a
(lp679
I1
asV\u881f
(lp680
I1
asV\u6b9e
(lp681
I1
asV\u9223
(lp682
I1
asV\u5147
(lp683
I1
asV\u9c27
(lp684
I1
asV\u9b29
(lp685
I1
asV\u6b77
(lp686
I1
asV\u79aa
(lp687
I1
asV\u852d
(lp688
I1
asV\u6af3
(lp689
I1
asV\u8db2
(lp690
I1
asV\u77b6
(lp691
I1
asV\u9874
(lp692
I1
asV\u65c2
(lp693
I1
asV\u8b49
(lp694
I1
asV\u964b
(lp695
I3
aI2
asV\u7dd2
(lp696
I1
asV\u8457
(lp697
I4
aI2
asV\u81da
(lp698
I1
asV\u8cdc
(lp699
I1
asV\u7761
(lp700
I3
aI2
asV\u56e0
(lp701
I3
aI2
asV\u95e2
(lp702
I1
asV\u7165
(lp703
I1
asV\u9c67
(lp704
I1
asV\u856d
(lp705
I2
aI1
asV\u64ec
(lp706
I1
asV\u806f
(lp707
I1
asV\u63ee
(lp708
I3
aI2
aI1
asV\u4ef0
(lp709
I4
asV\u8a73
(lp710
I1
asV\u6975
(lp711
I1
asV\u9477
(lp712
I1
asV\u52f8
(lp713
I1
asV\u91fa
(lp714
I1
asV\u9cfc
(lp715
I1
asV\u6383
(lp716
I1
asV\u6085
(lp717
I1
asV\u6d87
(lp718
I1
asV\u928d
(lp719
I1
asV\u6a89
(lp720
I1
asV\u5cf4
(lp721
I1
asV\u750c
(lp722
I1
asV\u920e
(lp723
I1
asV\u9b93
(lp724
I1
asV\u9c12
(lp725
I1
asV\u7895
(lp726
I1
asV\u9914
(lp727
I1
asV\u6597
(lp728
I3
aI2
asV\u8c9d
(lp729
I1
asV\u8d1c
(lp730
I1
asV\u6a1e
(lp731
I1
asV\u93a3
(lp732
I1
asV\u5da7
(lp733
I1
asV\U00029e26
(lp734
I1
asV\u7aa9
(lp735
I1
asV\u7b28
(lp736
I3
asV\u6f86
(lp737
I1
asV\u652c
(lp738
I1
asV\u71dc
(lp739
I1
asV\u4bb3
(lp740
I1
asV\u955f
(lp741
I1
asV\u92b9
(lp742
I1
asV\u9338
(lp743
I1
asV\u96de
(lp744
I1
asV\u7d3c
(lp745
I1
asV\u79bf
(lp746
I1
asV\u9a3e
(lp747
I1
asV\u6144
(lp748
I1
asV\u8ac9
(lp749
I1
asV\u97cb
(lp750
I1
asV\u884a
(lp751
I1
asV\u524e
(lp752
I1
asV\u98e2
(lp753
I1
asV\u300f
(lp754
I1
asV\u62d9
(lp755
I2
asV\u6cdd
(lp756
I1
asV\u8a5e
(lp757
I1
asV\u76e1
(lp758
I1
asV\u9760
(lp759
I3
aI2
asV\u763a
(lp760
I1
asV\u50e5
(lp761
I1
asV\u5167
(lp762
I1
asV\u9b68
(lp763
I1
asV\u6a62
(lp764
I1
asV\u8a13
(lp765
I1
asV\u6f70
(lp766
I1
asV\u72f9
(lp767
I1
asV\u7378
(lp768
I1
asV\u907a
(lp769
I2
aI1
asV\u5cfd
(lp770
I1
asV\u99ff
(lp771
I1
asV\u6894
(lp772
I1
asV\u8d07
(lp773
I1
asV\u770b
(lp774
I3
aI2
asV\u940d
(lp775
I1
asV\u958c
(lp776
I1
asV\u7e11
(lp777
I1
asV\u9f90
(lp778
I1
asV\u56c5
(lp779
I1
asV\u8f1b
(lp780
I1
asV\u7e1b
(lp781
I1
asV\u8a9e
(lp782
I3
aI2
aI1
asV\u7621
(lp783
I1
asV\u819a
(lp784
I1
asV\u7d1d
(lp785
I1
asV\u65ac
(lp786
I1
asV\u8b33
(lp787
I1
asV\u8cb2
(lp788
I1
asV\u69b4
(lp789
I2
asV\u7537
(lp790
I4
aI3
asV\u56b6
(lp791
I1
asV\u9239
(lp792
I1
asV\u93b8
(lp793
I1
asV\u8b9e
(lp794
I1
asV\u7c3d
(lp795
I1
asV\u5dbc
(lp796
I1
asV\u993f
(lp797
I1
asV\u68ca
(lp798
I1
asV\u95cc
(lp799
I1
asV\u5e79
(lp800
I2
aI1
asV\u99d4
(lp801
I1
asV\u6557
(lp802
I1
asV\u66d6
(lp803
I1
asV\u8259
(lp804
I1
asV\u6f5b
(lp805
I1
asV\u537b
(lp806
I1
asV\u8ade
(lp807
I1
asV\u7661
(lp808
I1
asV\u78d1
(lp809
I1
asV\u91e4
(lp810
I1
asV\u7a69
(lp811
I1
asV\u707d
(lp812
I1
asV\u8fa6
(lp813
I3
aI2
aI1
asV\u7dd3
(lp814
I1
asV\u6ff0
(lp815
I1
asV\u89f4
(lp816
I1
asV\u9577
(lp817
I1
asV\u96f6
(lp818
I2
asV\u797f
(lp819
I1
asV\u8f54
(lp820
I1
asV\u5d81
(lp821
I1
asV\u8b02
(lp822
I1
asV\u93d7
(lp823
I1
asV\u76de
(lp824
I1
asV\U0002a106
(lp825
I1
asV\U0002a056
(lp826
I1
asV\u9b8d
(lp827
I1
asV\u9a0c
(lp828
I1
asV\u7e8f
(lp829
I3
aI2
aI1
asV\u9312
(lp830
I1
asV\u5614
(lp831
I1
asV\u4a97
(lp832
I1
asV\u6558
(lp833
I1
asV\u8d99
(lp834
I1
asV\u6f1a
(lp835
I1
asV\u851e
(lp836
I1
asV\u79a1
(lp837
I1
asV\u9b22
(lp838
I1
asV\u7fa5
(lp839
I1
asV\u72a7
(lp840
I1
asV\u73a9
(lp841
I2
asV\u95a9
(lp842
I1
asV\u8add
(lp843
I1
asV\u6bad
(lp844
I1
asV\u64b3
(lp845
I1
asV\u8332
(lp846
I1
asV\u9936
(lp847
I1
asV\u7db9
(lp848
I1
asV\u9cf2
(lp849
I1
asV\u8cc3
(lp850
I1
asV\u85c9
(lp851
I2
asV\u58cb
(lp852
I1
asV\u7a4c
(lp853
I1
asV\u9ecf
(lp854
I3
aI2
asV\u7d4e
(lp855
I1
asV\u91d1
(lp856
I2
asV\u8ad7
(lp857
I1
asV\u8956
(lp858
I1
asV\u790e
(lp859
I1
asV\u655e
(lp860
I3
aI2
asV\u99e1
(lp861
I1
asV\u7591
(lp862
I3
aI2
asV\u9b62
(lp863
I1
asV\u5be7
(lp864
I1
asV\u55e9
(lp865
I1
asV\u5468
(lp866
I3
asV\u776a
(lp867
I2
asV\u8a6c
(lp868
I1
asV\u6eef
(lp869
I1
asV\u6d6e
(lp870
I3
aI2
asV\u7c3e
(lp871
I1
asV\u6372
(lp872
I1
asV\u67f5
(lp873
I1
asV\u5df9
(lp874
I1
asV\u9c78
(lp875
I1
asV\u93fd
(lp876
I1
asV\U00028b82
(lp877
I1
asV\u8f05
(lp878
I1
asV\u8207
(lp879
I3
aI2
aI1
asV\u6488
(lp880
I1
asV\u9b0d
(lp881
I1
asV\u9e0f
(lp882
I1
asV\u9090
(lp883
I1
asV\u9413
(lp884
I1
asV\u9694
(lp885
I3
aI2
asV\u8a17
(lp886
I1
asV\u8996
(lp887
I4
aI1
asV\u7e43
(lp888
I1
asV\u9921
(lp889
I1
asV\u9c23
(lp890
I1
asV\u9227
(lp891
I1
asV\u77aa
(lp892
I3
aI2
asV\u8b2d
(lp893
I1
asV\u8aac
(lp894
I1
asV\u53ad
(lp895
I1
asV\u9a37
(lp896
I1
asV\u7d39
(lp897
I1
asV\u92bc
(lp898
I1
asV\u963f
(lp899
I4
asV\u95be
(lp900
I1
asV\u8f45
(lp901
I1
asV\u6ec4
(lp902
I1
asV\u584b
(lp903
I1
asV\u7b4d
(lp904
I1
asV\u6f22
(lp905
I1
asV\u8a57
(lp906
I1
asV\u865f
(lp907
I1
asV\u9b58
(lp908
I1
asV\u58e0
(lp909
I1
asV\u9c63
(lp910
I1
asV\u5be2
(lp911
I1
asV\u5f65
(lp912
I1
asV\u71e6
(lp913
I1
asV\u8526
(lp914
I1
asV\u8b6d
(lp915
I1
asV\u6aec
(lp916
I1
asV\u6e6f
(lp917
I1
asV\u6c3e
(lp918
I2
asV\u6473
(lp919
I1
asV\u5dd2
(lp920
I1
asV\u99f6
(lp921
I1
asV\U00029d79
(lp922
I1
asV\u537d
(lp923
I1
asV\u92fc
(lp924
I1
asV\u75fe
(lp925
I1
asV\u6a02
(lp926
I3
aI2
aI1
asV\u98ad
(lp927
I1
asV\u860a
(lp928
I1
asV\u5b0c
(lp929
I1
asV\u5c0e
(lp930
I1
asV\u5091
(lp931
I1
asV\u5110
(lp932
I1
asV\u9593
(lp933
I1
asV\u9212
(lp934
I1
asV\u5695
(lp935
I1
asV\u5aaf
(lp936
I1
asV\u8c99
(lp937
I1
asV\U000298a1
(lp938
I1
asV\u5920
(lp939
I1
asV\u7da3
(lp940
I1
asV\u9ea5
(lp941
I1
asV\u93a7
(lp942
I1
asV\u7026
(lp943
I1
asV\u7528
(lp944
I3
aI2
asV\U000289ab
(lp945
I1
asV\u8b2c
(lp946
I1
asV\u8faf
(lp947
I1
asV\u85b3
(lp948
I1
asV\u6232
(lp949
I1
asV\u6734
(lp950
I4
asV\u8940
(lp951
I1
asV\u6ec5
(lp952
I1
asV\u8f44
(lp953
I1
asV\u6046
(lp954
I1
asV\u920d
(lp955
I1
asV\u5b4c
(lp956
I1
asV\u50d1
(lp957
I1
asV\u95d3
(lp958
I1
asV\U00029754
(lp959
I1
asV\u8cd9
(lp960
I1
asV\u7de3
(lp961
I1
asV\u7a62
(lp962
I1
asV\u966a
(lp963
I3
aI2
asV\u8aed
(lp964
I1
asV\u8b0f
(lp965
I1
asV\u60f1
(lp966
I1
asV\u9c3e
(lp967
I1
asV\u6774
(lp968
I1
asV\u9bf7
(lp969
I1
asV\u7cf9
(lp970
I1
asV\u9e15
(lp971
I1
asV\u5e7a
(lp972
I4
aI3
aI2
aI1
asV\u72fd
(lp973
I1
asV\u737c
(lp974
I1
asV\u97ff
(lp975
I3
aI2
aI1
asV\u947e
(lp976
I1
asV\U0002a086
(lp977
I1
asV\u8588
(lp978
I1
asV\u9a0d
(lp979
I1
asV\u5011
(lp980
I1
asV\u8b17
(lp981
I1
asV\u611b
(lp982
I3
aI2
aI1
asV\u8e9a
(lp983
I1
asV\u849e
(lp984
I1
asV\u9821
(lp985
I1
asV\u9d23
(lp986
I1
asV\u5e25
(lp987
I1
asV\u95a8
(lp988
I1
asV\u96aa
(lp989
I1
asV\u8a2d
(lp990
I1
asV\u8f2f
(lp991
I1
asV\u61c9
(lp992
I3
aI2
aI1
asV\u9df2
(lp993
I1
asV\u98b6
(lp994
I1
asV\u7c39
(lp995
I1
asV\u5db8
(lp996
I1
asV\u513b
(lp997
I1
asV\u923d
(lp998
I1
asV\u89c0
(lp999
I1
asV\u8ac2
(lp1000
I1
asV\u8449
(lp1001
I1
asV\u994b
(lp1002
I1
asV\u9a4d
(lp1003
I1
asV\u6523
(lp1004
I1
asV\u9f4f
(lp1005
I1
asV\u7051
(lp1006
I1
asV\u91d0
(lp1007
I1
asV\u5553
(lp1008
I1
asV\u92d2
(lp1009
I1
asV\u68d6
(lp1010
I1
asV\u6c59
(lp1011
I1
asV\u5db4
(lp1012
I1
asV\u875f
(lp1013
I1
asV\u81fa
(lp1014
I1
asV\u7469
(lp1015
I1
asV\u56ea
(lp1016
I1
asV\u8a6d
(lp1017
I1
asV\u6f6f
(lp1018
I1
asV\u7d73
(lp1019
I1
asV\u9b77
(lp1020
I1
asV\u9df8
(lp1021
I1
asV\u727d
(lp1022
I3
aI2
aI1
asV\u8a00
(lp1023
I4
asV\u798d
(lp1024
I1
asV\u980c
(lp1025
I1
asV\u9210
(lp1026
I1
asV\u9112
(lp1027
I1
asV\u9414
(lp1028
I1
asV\u6b16
(lp1029
I1
asV\u8085
(lp1030
I1
asV\u649f
(lp1031
I1
asV\u7ba1
(lp1032
I3
aI2
asV\u9a20
(lp1033
I1
asV\u5922
(lp1034
I3
aI2
aI1
asV\u9da5
(lp1035
I1
asV\u9c24
(lp1036
I1
asV\u9326
(lp1037
I1
asV\u8caf
(lp1038
I1
asV\u8f2e
(lp1039
I1
asV\u6230
(lp1040
I3
aI2
aI1
asV\u98b7
(lp1041
I1
asV\u5fb9
(lp1042
I1
asV\u92bb
(lp1043
I1
asV\u7d3a
(lp1044
I1
asV\u903c
(lp1045
I3
aI2
asV\u773e
(lp1046
I1
asV\u580a
(lp1047
I1
asV\u6346
(lp1048
I3
aI2
asV\u7dac
(lp1049
I1
asV\u59cd
(lp1050
I1
asV\u984c
(lp1051
I1
asV\u7f4e
(lp1052
I1
asV\u93d1
(lp1053
I1
asV\u7152
(lp1054
I1
asV\u95d5
(lp1055
I1
asV\u9454
(lp1056
I1
asV\u68d7
(lp1057
I1
asV\u8b56
(lp1058
I1
asV\u4e58
(lp1059
I3
aI2
asV\u9be1
(lp1060
I1
asV\u7a60
(lp1061
I1
asV\u5ee3
(lp1062
I1
asV\u9962
(lp1063
I1
asV\u9de5
(lp1064
I1
asV\u5c64
(lp1065
I1
asV\u8aeb
(lp1066
I1
asV\u9d15
(lp1067
I1
asV\u8f3f
(lp1068
I1
asV\u7ff9
(lp1069
I1
asV\u7e78
(lp1070
I1
asV\u52fb
(lp1071
I1
asV\u7d7a
(lp1072
I1
asV\u907c
(lp1073
I1
asV\u8b01
(lp1074
I1
asV\u9bc0
(lp1075
I1
asV\u8d05
(lp1076
I1
asV\u6709
(lp1077
I3
aI2
asV\u6688
(lp1078
I1
asV\u858a
(lp1079
I1
asV\u9c0f
(lp1080
I1
asV\u9f8e
(lp1081
I1
asV\u7613
(lp1082
I1
asV\u5192
(lp1083
I3
aI2
asV\u7515
(lp1084
I1
asV\u8b96
(lp1085
I1
asV\u879e
(lp1086
I1
asV\u5b21
(lp1087
I1
asV\u7e23
(lp1088
I1
asV\u7027
(lp1089
I1
asV\u93a6
(lp1090
I1
asV\u96a8
(lp1091
I3
aI2
aI1
asV\u55aa
(lp1092
I1
asV\u8fae
(lp1093
I1
asV\u6331
(lp1094
I1
asV\u61b2
(lp1095
I1
asV\u9837
(lp1096
I1
asV\u9bb6
(lp1097
I1
asV\u523b
(lp1098
I3
aI2
asV\u9dba
(lp1099
I1
asV\u743f
(lp1100
I1
asV\u8cc4
(lp1101
I1
asV\u7c60
(lp1102
I1
asV\u9a4b
(lp1103
I1
asV\u5653
(lp1104
I1
asV\u71d2
(lp1105
I3
aI2
aI1
asV\u74d4
(lp1106
I1
asV\u6f59
(lp1107
I1
asV\u7db4
(lp1108
I1
asV\u625b
(lp1109
I3
aI2
asV\u6dda
(lp1110
I1
asV\u645f
(lp1111
I3
aI2
aI1
asV\u5e63
(lp1112
I1
asV\u99e2
(lp1113
I1
asV\u7067
(lp1114
I1
asV\u93e6
(lp1115
I1
asV\u6a6b
(lp1116
I1
asV\u4e26
(lp1117
I1
asV\u696d
(lp1118
I1
asV\u4fee
(lp1119
I2
asV\u6371
(lp1120
I1
asV\u61f2
(lp1121
I1
asV\u6575
(lp1122
I1
asV\u64f4
(lp1123
I1
asV\u5bf6
(lp1124
I1
asV\u927b
(lp1125
I1
asV\u9dfa
(lp1126
I1
asV\u947f
(lp1127
I1
asV\u6a81
(lp1128
I1
asV\u8b00
(lp1129
I1
asV\u8d04
(lp1130
I1
asV\u6689
(lp1131
I1
asV\u7b8b
(lp1132
I1
asV\u840a
(lp1133
I1
asV\u990c
(lp1134
I1
asV\u7d8f
(lp1135
I1
asV\u5291
(lp1136
I1
asV\u9310
(lp1137
I1
asV\u9bf6
(lp1138
I1
asV\u8a16
(lp1139
I1
asV\u4e99
(lp1140
I1
asV\u8b05
(lp1141
I1
asV\u639b
(lp1142
I1
asV\u611c
(lp1143
I1
asV\u859f
(lp1144
I1
asV\u861e
(lp1145
I1
asV\u8607
(lp1146
I1
asV\u9226
(lp1147
I1
asV\u5728
(lp1148
I3
aI2
asV\u6bab
(lp1149
I1
asV\u62b1
(lp1150
I3
aI2
asV\u9109
(lp1151
I1
asV\u9a36
(lp1152
I1
asV\u53bb
(lp1153
I3
aI2
asV\u9c3a
(lp1154
I1
asV\u513c
(lp1155
I1
asV\u95bf
(lp1156
I1
asV\u4b40
(lp1157
I1
asV\u6fc3
(lp1158
I1
asV\u8cc5
(lp1159
I1
asV\u61c7
(lp1160
I1
asV\u66c9
(lp1161
I1
asV\u7a6b
(lp1162
I1
asV\u7bcb
(lp1163
I1
asV\u994c
(lp1164
I1
asV\u97d3
(lp1165
I1
asV\u9a0f
(lp1166
I1
asV\u8a56
(lp1167
I1
asV\u6ed9
(lp1168
I1
asV\u5665
(lp1169
I1
asV\u63db
(lp1170
I1
asV\u5862
(lp1171
I1
asV\u9ce5
(lp1172
I1
asV\u91e7
(lp1173
I1
asV\u9266
(lp1174
I1
asV\u9768
(lp1175
I1
asV\u746a
(lp1176
I1
asV\u896c
(lp1177
I1
asV\u5c69
(lp1178
I1
asV\u67f3
(lp1179
I3
asV\u8072
(lp1180
I1
asV\u89bf
(lp1181
I1
asV\u5de8
(lp1182
I2
asV\u9c7a
(lp1183
I1
asV\u616b
(lp1184
I1
asV\u6a01
(lp1185
I1
asV\u8b80
(lp1186
I1
asV\u8f03
(lp1187
I2
aI1
asV\u5b0b
(lp1188
I1
asV\u53c3
(lp1189
I1
asV\u9211
(lp1190
I1
asV\u7919
(lp1191
I1
asV\u5713
(lp1192
I1
asV\u5442
(lp1193
I1
asV\u9594
(lp1194
I1
asV\u6e19
(lp1195
I1
asV\u9926
(lp1196
I1
asV\u9b9a
(lp1197
I1
asV\u9c25
(lp1198
I1
asV\u9127
(lp1199
I1
asV\u92a6
(lp1200
I1
asV\u5629
(lp1201
I1
asV\u8b2b
(lp1202
I1
asV\u89ac
(lp1203
I1
asV\u4eae
(lp1204
I3
aI2
asV\u6231
(lp1205
I1
asV\u6435
(lp1206
I1
asV\u85b4
(lp1207
I2
aI1
asV\u9937
(lp1208
I1
asV\u7ab6
(lp1209
I1
asV\u7e39
(lp1210
I1
asV\u733b
(lp1211
I1
asV\u8a41
(lp1212
I1
asV\u6bc0
(lp1213
I1
asV\u5377
(lp1214
I2
asV\u6649
(lp1215
I1
asV\u87c8
(lp1216
I1
asV\u64ca
(lp1217
I1
asV\u984d
(lp1218
I1
asV\u9251
(lp1219
I1
asV\u93d0
(lp1220
I1
asV\u9455
(lp1221
I1
asV\u95d4
(lp1222
I1
asV\u8ad6
(lp1223
I2
aI1
asV\u6fd8
(lp1224
I1
asV\u8cda
(lp1225
I1
asV\u7c23
(lp1226
I1
asV\u7a61
(lp1227
I1
asV\u9f63
(lp1228
I1
asV\u58e2
(lp1229
I1
asV\u7167
(lp1230
I3
aI2
asV\u92e6
(lp1231
I1
asV\u7669
(lp1232
I1
asV\u8b6b
(lp1233
I1
asV\u54ea
(lp1234
I2
asV\u8271
(lp1235
I1
asV\u60f2
(lp1236
I1
asV\u85f4
(lp1237
I1
asV\u7af6
(lp1238
I1
asV\u9e79
(lp1239
I1
asV\u737b
(lp1240
I1
asV\u9cfe
(lp1241
I1
asV\u507d
(lp1242
I1
asV\u71fc
(lp1243
I1
asV\u76fe
(lp1244
I3
aI2
asV\u6506
(lp1245
I1
asV\u9f8d
(lp1246
I1
asV\u9e0c
(lp1247
I1
asV\u990e
(lp1248
I1
asV\u9591
(lp1249
I3
aI2
aI1
asV\u9410
(lp1250
I1
asV\u5712
(lp1251
I1
asV\u9214
(lp1252
I1
asV\u8d16
(lp1253
I1
asV\u8b1a
(lp1254
I1
asV\u9da1
(lp1255
I1
asV\u9c20
(lp1256
I1
asV\u9a24
(lp1257
I1
asV\u7526
(lp1258
I1
asV\u7028
(lp1259
I1
asV\u8cab
(lp1260
I1
asV\u8fad
(lp1261
I1
asV\u6e2c
(lp1262
I1
asV\u6aaf
(lp1263
I1
asV\u6234
(lp1264
I3
aI2
asV\u5eb7
(lp1265
I3
aI2
asV\u99b9
(lp1266
I1
asV\u9838
(lp1267
I1
asV\u97bd
(lp1268
I1
asV\u8f42
(lp1269
I1
asV\U00028bc5
(lp1270
I1
asV\u66c7
(lp1271
I1
asV\u8546
(lp1272
I1
asV\u81c9
(lp1273
I1
asV\U0002a048
(lp1274
I1
asV\u834a
(lp1275
I1
asV\u5fcd
(lp1276
I3
aI2
asV\u9acf
(lp1277
I1
asV\u4ed7
(lp1278
I3
aI2
asV\u78b8
(lp1279
I1
asV\u8b5a
(lp1280
I1
asV\u865c
(lp1281
I1
asV\u7de1
(lp1282
I1
asV\u9c60
(lp1283
I1
asV\u78e3
(lp1284
I1
asV\u9a64
(lp1285
I1
asV\u76e7
(lp1286
I1
asV\u91e9
(lp1287
I1
asV\u8ceb
(lp1288
I1
asV\u736a
(lp1289
I1
asV\u60f3
(lp1290
I3
aI2
asV\u9ef7
(lp1291
I1
asV\u7d76
(lp1292
I1
asV\u9b7a
(lp1293
I1
asV\u767c
(lp1294
I1
asV\u6b05
(lp1295
I1
asV\u8a84
(lp1296
I1
asV\u6607
(lp1297
I1
asV\u5c0b
(lp1298
I3
aI2
aI1
asV\u838a
(lp1299
I1
asV\u7e8c
(lp1300
I1
asV\u7a0f
(lp1301
I1
asV\u798e
(lp1302
I1
asV\u9315
(lp1303
I1
asV\u6898
(lp1304
I1
asV\u5f4e
(lp1305
I1
asV\u8b9a
(lp1306
I1
asV\u671d
(lp1307
I4
aI3
aI2
asV\u7d21
(lp1308
I1
asV\u9b25
(lp1309
I1
asV\u7627
(lp1310
I1
asV\u5f70
(lp1311
I4
asV\u6c2b
(lp1312
I1
asV\u93aa
(lp1313
I1
asV\u5d50
(lp1314
I1
asV\u69ae
(lp1315
I1
asV\u64b0
(lp1316
I2
asV\u6f2c
(lp1317
I1
asV\u7e37
(lp1318
I1
asV\u98b8
(lp1319
I1
asV\u9bba
(lp1320
I1
asV\u973d
(lp1321
I1
asV\u923f
(lp1322
I1
asV\u71be
(lp1323
I1
asV\u6d41
(lp1324
I3
aI2
asV\u8cc0
(lp1325
I1
asV\u4fc2
(lp1326
I1
asV\u8b45
(lp1327
I1
asV\u8ac4
(lp1328
I1
asV\u9ecc
(lp1329
I1
asV\u9a4f
(lp1330
I1
asV\u99ce
(lp1331
I1
asV\u61de
(lp1332
I1
asV\u7d61
(lp1333
I1
asV\u9b65
(lp1334
I1
asV\u7667
(lp1335
I1
asV\u7169
(lp1336
I1
asV\u50e8
(lp1337
I1
asV\u8c6b
(lp1338
I3
aI2
asV\U000293ea
(lp1339
I1
asV\u6eec
(lp1340
I1
asV\u64f0
(lp1341
I1
asV\u8073
(lp1342
I1
asV\u87f2
(lp1343
I1
asV\u7df6
(lp1344
I1
asV\u9c52
(lp1345
I1
asV\u927f
(lp1346
I1
asV\u71fe
(lp1347
I1
asV\u4c81
(lp1348
I1
asV\u8a85
(lp1349
I1
asV\u8b04
(lp1350
I1
asV\u8089
(lp1351
I3
asV\u8108
(lp1352
I1
asV\u820a
(lp1353
I1
asV\u7e8d
(lp1354
I1
asV\u7b8f
(lp1355
I1
asV\u980e
(lp1356
I1
asV\u6f97
(lp1357
I1
asV\u8918
(lp1358
I1
asV\u5ca1
(lp1359
I1
asV\u5b24
(lp1360
I1
asV\u77a7
(lp1361
I3
aI2
asV\u9426
(lp1362
I1
asV\u522a
(lp1363
I1
asV\u8f2c
(lp1364
I1
asV\u6baf
(lp1365
I1
asV\u76dc
(lp1366
I1
asV\U00029938
(lp1367
I1
asV\u95bb
(lp1368
I3
aI1
asV\u570b
(lp1369
I1
asV\u93bf
(lp1370
I1
asV\u703e
(lp1371
I1
asV\u8cc1
(lp1372
I1
asV\u9d61
(lp1373
I1
asV\u540d
(lp1374
I2
asV\u5dcb
(lp1375
I1
asV\u7336
(lp1376
I1
asV\u7f4c
(lp1377
I1
asV\u984e
(lp1378
I1
asV\u91d3
(lp1379
I1
asV\u7652
(lp1380
I1
asV\u52d5
(lp1381
I3
aI2
aI1
asV\u9354
(lp1382
I1
asV\u805e
(lp1383
I3
aI2
aI1
asV\u9d60
(lp1384
I1
asV\u7e62
(lp1385
I1
asV\u5b64
(lp1386
I3
aI2
asV\u64f1
(lp1387
I1
asV\u5169
(lp1388
I1
asV\U0002a1f3
(lp1389
I1
asV\u8cbf
(lp1390
I1
asV\u7a7a
(lp1391
I3
aI2
asV\u4e82
(lp1392
I1
asV\u6a05
(lp1393
I1
asV\u7d0b
(lp1394
I1
asV\u5f8c
(lp1395
I1
asV\u5411
(lp1396
I3
aI2
asV\u9590
(lp1397
I1
asV\U0002b692
(lp1398
I1
asV\u9215
(lp1399
I1
asV\u9394
(lp1400
I1
asV\u8f17
(lp1401
I1
asV\u6c96
(lp1402
I1
asV\u8998
(lp1403
I1
asV\u651b
(lp1404
I1
asV\u8a9a
(lp1405
I1
asV\u609e
(lp1406
I1
asV\u7c21
(lp1407
I1
asV\u7da0
(lp1408
I1
asV\u9727
(lp1409
I1
asV\u74a6
(lp1410
I1
asV\u52aa
(lp1411
I4
aI3
aI2
asV\u65b0
(lp1412
I5
aI2
asV\u5f37
(lp1413
I1
asV\u9839
(lp1414
I1
asV\u7375
(lp1415
I1
asV\u7aba
(lp1416
I1
asV\u563d
(lp1417
I1
asV\u77bc
(lp1418
I1
asV\u50be
(lp1419
I1
asV\u61cd
(lp1420
I1
asV\u9b4f
(lp1421
I2
asV\u9451
(lp1422
I1
asV\u95d0
(lp1423
I1
asV\u9255
(lp1424
I1
asV\u6ada
(lp1425
I1
asV\u665d
(lp1426
I1
asV\u7de0
(lp1427
I1
asV\u5ee2
(lp1428
I1
asV\u9a65
(lp1429
I1
asV\u9be4
(lp1430
I1
asV\u8a50
(lp1431
I1
asV\u9069
(lp1432
I1
asV\u92ea
(lp1433
I3
aI2
aI1
asV\u8b6f
(lp1434
I2
aI1
asV\u8173
(lp1435
I1
asV\u83f4
(lp1436
I1
asV\u5f77
(lp1437
I2
asV\u9cf6
(lp1438
I1
asV\u5879
(lp1439
I1
asV\u99f8
(lp1440
I1
asV\u91fe
(lp1441
I1
asV\u967d
(lp1442
I3
aI1
asV\u8706
(lp1443
I1
asV\u8208
(lp1444
I1
asV\u9c0c
(lp1445
I1
asV\u95ac
(lp1446
I1
asV\u6173
(lp1447
I1
asV\u9293
(lp1448
I1
asV\u7658
(lp1449
I1
asV\u8a18
(lp1450
I3
aI2
aI1
asV\u5dd4
(lp1451
I1
asV\u8adb
(lp1452
I1
asV\u6b04
(lp1453
I1
asV\u5d22
(lp1454
I1
asV\u9824
(lp1455
I1
asV\U00029726
(lp1456
I1
asV\u93a9
(lp1457
I1
asV\u8eab
(lp1458
I3
aI2
asV\u512a
(lp1459
I1
asV\u6c2c
(lp1460
I1
asV\u9a38
(lp1461
I1
asV\u96bb
(lp1462
I1
asV\u993a
(lp1463
I1
asV\u95bd
(lp1464
I1
asV\u4fc1
(lp1465
I1
asV\u6ac3
(lp1466
I1
asV\u64c7
(lp1467
I1
asV\u63c9
(lp1468
I3
aI2
asV\u7f77
(lp1469
I1
asV\u7c4c
(lp1470
I1
asV\U000298cf
(lp1471
I1
asV\u9b4e
(lp1472
I1
asV\u91d5
(lp1473
I1
asV\u9054
(lp1474
I3
aI2
aI1
asV\u8a58
(lp1475
I1
asV\u85dd
(lp1476
I3
aI2
aI1
asV\u645c
(lp1477
I1
asV\u70ba
(lp1478
I1
asV\u5864
(lp1479
I1
asV\u9766
(lp1480
I1
asV\u8eeb
(lp1481
I1
asV\u4c6c
(lp1482
I1
asV\u9dbc
(lp1483
I1
asV\u9cf7
(lp1484
I1
asV\u9f76
(lp1485
I1
asV\u96fb
(lp1486
I1
asV\u547c
(lp1487
I4
asV\u937e
(lp1488
I2
aI1
asV\u6f01
(lp1489
I1
asV\u8a03
(lp1490
I1
asV\u8407
(lp1491
I1
asV\u8070
(lp1492
I1
asV\u7e0b
(lp1493
I1
asV\u618a
(lp1494
I1
asV\u7d0d
(lp1495
I1
asV\u7343
(lp1496
I1
asV\u380f
(lp1497
I1
asV\u9b8e
(lp1498
I1
asV\u5690
(lp1499
I1
asV\u9592
(lp1500
I1
asV\u5115
(lp1501
I1
asV\u64ef
(lp1502
I1
asV\u4f96
(lp1503
I1
asV\u8b19
(lp1504
I1
asV\u8a98
(lp1505
I1
asV\u651d
(lp1506
I1
asV\u7da2
(lp1507
I1
asV\u5925
(lp1508
I2
aI1
asV\u9427
(lp1509
I1
asV\u97a6
(lp1510
I1
asV\u9329
(lp1511
I1
asV\u92a8
(lp1512
I1
asV\u51aa
(lp1513
I1
asV\u8cac
(lp1514
I1
asV\u6bae
(lp1515
I1
asV\u8abc
(lp1516
I1
asV\u7db2
(lp1517
I1
asV\u9c37
(lp1518
I1
asV\u763b
(lp1519
I1
asV\u54bc
(lp1520
I1
asV\u6f41
(lp1521
I1
asV\u8ec0
(lp1522
I1
asV\u88ca
(lp1523
I1
asV\u68c4
(lp1524
I1
asV\u9d42
(lp1525
I1
asV\u9376
(lp1526
I1
asV\u584f
(lp1527
I1
asV\u95d2
(lp1528
I1
asV\u5678
(lp1529
I1
asV\u8b59
(lp1530
I1
asV\u865b
(lp1531
I1
asV\u9f61
(lp1532
I1
asV\u5ee0
(lp1533
I1
asV\u9369
(lp1534
I1
asV\u92e8
(lp1535
I1
asV\u8cec
(lp1536
I1
asV\u6771
(lp1537
I1
asV\u8cd2
(lp1538
I1
asV\u9c77
(lp1539
I1
asV\u9dc4
(lp1540
I1
asV\u73fe
(lp1541
I1
asV\u6c02
(lp1542
I1
asV\u8606
(lp1543
I1
asV\u4308
(lp1544
I1
asV\u7f8b
(lp1545
I1
asV\u798f
(lp1546
I3
aI2
asV\u9a0e
(lp1547
I3
aI2
aI1
asV\u5412
(lp1548
I1
asV\u5114
(lp1549
I1
asV\U00026a99
(lp1550
I1
asV\u4b18
(lp1551
I1
asV\u649d
(lp1552
I1
asV\u651c
(lp1553
I1
asV\u5f20
(lp1554
I3
asV\u9ba3
(lp1555
I1
asV\u92a9
(lp1556
I1
asV\u9328
(lp1557
I1
asV\u4d2c
(lp1558
I1
asV\u89af
(lp1559
I1
asV\u7632
(lp1560
I1
asV\u60b5
(lp1561
I1
asV\u6134
(lp1562
I1
asV\u5e36
(lp1563
I3
aI2
aI1
asV\u9beb
(lp1564
I1
asV\u5b38
(lp1565
I1
asV\u6ade
(lp1566
I1
asV\u74bd
(lp1567
I1
asV\u923e
(lp1568
I1
asV\u8f40
(lp1569
I1
asV\u6c42
(lp1570
I3
aI2
asV\u7dba
(lp1571
I1
asV\u8646
(lp1572
I1
asV\u62c9
(lp1573
I3
aI2
asV\u58b0
(lp1574
I1
asV\u7a4e
(lp1575
I1
asV\u56d1
(lp1576
I1
asV\u5750
(lp1577
I3
aI2
asV\u7452
(lp1578
I1
asV\u50d5
(lp1579
I1
asV\u9938
(lp1580
I1
asV\u8b58
(lp1581
I1
asV\u885a
(lp1582
I1
asV\u81df
(lp1583
I1
asV\u5ee1
(lp1584
I1
asV\u9f60
(lp1585
I1
asV\u5c62
(lp1586
I1
asV\u98e5
(lp1587
I1
asV\u5666
(lp1588
I1
asV\u92e9
(lp1589
I1
asV\u7368
(lp1590
I3
aI2
aI1
asV\u8feb
(lp1591
I2
asV\u8ced
(lp1592
I1
asV\u8d6c
(lp1593
I1
asV\u8a6e
(lp1594
I1
asV\u9be8
(lp1595
I1
asV\u5b78
(lp1596
I3
aI2
aI1
asV\u97fb
(lp1597
I1
asV\U0002987a
(lp1598
I1
asV\u6cc1
(lp1599
I1
asV\u7bc0
(lp1600
I1
asV\u98ea
(lp1601
I1
asV\u8805
(lp1602
I1
asV\u8209
(lp1603
I1
asV\u9eab
(lp1604
I1
asV\u8396
(lp1605
I1
asV\u7c0d
(lp1606
I1
asV\u7d8c
(lp1607
I1
asV\u990f
(lp1608
I1
asV\u7015
(lp1609
I1
asV\u8d17
(lp1610
I1
asV\u6e96
(lp1611
I1
asV\u6a19
(lp1612
I3
aI1
asV\u6b98
(lp1613
I1
asV\u671b
(lp1614
I3
aI2
asV\u5fa0
(lp1615
I1
asV\u56a6
(lp1616
I1
asV\u6f2b
(lp1617
I3
aI2
asV\u6aae
(lp1618
I1
asV\u64b2
(lp1619
I1
asV\u9d37
(lp1620
I1
asV\u9148
(lp1621
I1
asV\u9bb8
(lp1622
I1
asV\u98ba
(lp1623
I1
asV\u95bc
(lp1624
I1
asV\u4b43
(lp1625
I1
asV\u8cc2
(lp1626
I1
asV\u66c6
(lp1627
I1
asV\u9f4b
(lp1628
I1
asV\u5c4d
(lp1629
I1
asV\u5f4c
(lp1630
I1
asV\U000297d0
(lp1631
I1
asV\u5353
(lp1632
I2
asV\u9055
(lp1633
I1
asV\u91d4
(lp1634
I1
asV\u615f
(lp1635
I1
asV\u7e61
(lp1636
I1
asV\u9865
(lp1637
I1
asV\u93e8
(lp1638
I1
asV\u896f
(lp1639
I1
asV\u8aee
(lp1640
I1
asV\u64f2
(lp1641
I1
asV\u8075
(lp1642
I1
asV\u9d77
(lp1643
I1
asV\u9ef6
(lp1644
I1
asV\u58fa
(lp1645
I1
asV\u947d
(lp1646
I1
asV\u5354
(lp1647
I1
asV\u5000
(lp1648
I1
asV\u4bc0
(lp1649
I1
asV\u9302
(lp1650
I1
asV\u7906
(lp1651
I1
asV\u7d89
(lp1652
I1
asV\u5c08
(lp1653
I2
aI1
asV\u8810
(lp1654
I1
asV\u8c93
(lp1655
I1
asV\u6b12
(lp1656
I1
asV\u9116
(lp1657
I1
asV\u7f85
(lp1658
I1
asV\u9b9d
(lp1659
I1
asV\u7a1c
(lp1660
I1
asV\u5dd6
(lp1661
I1
asV\u9d1e
(lp1662
I1
asV\u64a3
(lp1663
I1
asV\u6efb
(lp1664
I1
asV\u8f2a
(lp1665
I1
asV\u93ad
(lp1666
I1
asV\u5e33
(lp1667
I1
asV\u775c
(lp1668
I1
asV\u79b1
(lp1669
I1
asV\u9830
(lp1670
I1
asV\u69b2
(lp1671
I1
asV\u5fb5
(lp1672
I1
asV\u7e34
(lp1673
I1
asV\u42b7
(lp1674
I1
asV\u65b9
(lp1675
I3
asV\u8e7a
(lp1676
I1
asV\u91c1
(lp1677
I1
asV\u8ce1
(lp1678
I1
asV\u9644
(lp1679
I3
aI2
asV\u7ac7
(lp1680
I1
asV\u9c48
(lp1681
I1
asV\u9f4a
(lp1682
I1
asV\u66cf
(lp1683
I1
asV\u854e
(lp1684
I1
asV\u8cd3
(lp1685
I1
asV\u6fd5
(lp1686
I1
asV\u76b8
(lp1687
I1
asV\u75d9
(lp1688
I1
asV\u98db
(lp1689
I1
asV\u975a
(lp1690
I1
asV\u9bdd
(lp1691
I1
asV\u3a5c
(lp1692
I1
asV\u5edf
(lp1693
I1
asV\u7d5e
(lp1694
I1
asV\u6ae7
(lp1695
I1
asV\u6de9
(lp1696
I1
asV\u92f8
(lp1697
I1
asV\u926c
(lp1698
I1
asV\u76ef
(lp1699
I3
aI2
asV\u78bc
(lp1700
I1
asV\u99f1
(lp1701
I1
asV\u9870
(lp1702
I1
asV\u9cf3
(lp1703
I1
asV\u6176
(lp1704
I1
asV\u85f9
(lp1705
I1
asV\u8a7c
(lp1706
I1
asV\u6eff
(lp1707
I1
asV\u7341
(lp1708
I1
asV\u5403
(lp1709
I4
aI3
aI2
asV\u9382
(lp1710
I1
asV\u96db
(lp1711
I1
asV\u7d09
(lp1712
I1
asV\u8b92
(lp1713
I1
asV\u8f15
(lp1714
I1
asV\u4e94
(lp1715
I3
asV\u9196
(lp1716
I1
asV\u7e1f
(lp1717
I1
asV\u7d9e
(lp1718
I1
asV\u60a0
(lp1719
I3
aI2
asV\u83a2
(lp1720
I1
asV\u69a6
(lp1721
I1
asV\u6d29
(lp1722
I1
asV\u8ca8
(lp1723
I1
asV\u502b
(lp1724
I1
asV\u532d
(lp1725
I1
asV\u92ac
(lp1726
I1
asV\u562f
(lp1727
I1
asV\u55ae
(lp1728
I1
asV\u7931
(lp1729
I1
asV\u98b0
(lp1730
I1
asV\u9c33
(lp1731
I1
asV\u5672
(lp1732
I1
asV\u5f35
(lp1733
I3
aI1
asV\u9eb4
(lp1734
I2
aI1
asV\u61b6
(lp1735
I1
asV\u883b
(lp1736
I1
asV\u6b3d
(lp1737
I1
asV\u924b
(lp1738
I1
asV\u9dca
(lp1739
I1
asV\U000299c6
(lp1740
I1
asV\u85ce
(lp1741
I1
asV\u7562
(lp1742
I1
asV\u8ed4
(lp1743
I1
asV\u5257
(lp1744
I1
asV\u7559
(lp1745
I3
aI2
asV\u985b
(lp1746
I1
asV\u77da
(lp1747
I1
asV\u5e5f
(lp1748
I1
asV\u7dde
(lp1749
I1
asV\u8161
(lp1750
I1
asV\u98c6
(lp1751
I1
asV\u566f
(lp1752
I1
asV\u7f75
(lp1753
I3
aI2
aI1
asV\u9ef4
(lp1754
I1
asV\u8277
(lp1755
I1
asV\u61f6
(lp1756
I1
asV\u8b7d
(lp1757
I1
asV\u8afc
(lp1758
I1
asV\u9081
(lp1759
I1
asV\u5100
(lp1760
I1
asV\u9583
(lp1761
I1
asV\u7b87
(lp1762
I1
asV\u9806
(lp1763
I3
aI2
aI1
asV\u7d08
(lp1764
I1
asV\u7e0a
(lp1765
I1
asV\u8e82
(lp1766
I1
asV\u8e95
(lp1767
I1
asV\u6f14
(lp1768
I3
aI2
asV\u5016
(lp1769
I1
asV\u9a05
(lp1770
I1
asV\u7c1e
(lp1771
I1
asV\u91b1
(lp1772
I1
asV\u8ca9
(lp1773
I1
asV\u91ab
(lp1774
I1
asV\U000297af
(lp1775
I1
asV\u942e
(lp1776
I1
asV\u98b1
(lp1777
I1
asV\u5009
(lp1778
I1
asV\u7db3
(lp1779
I1
asV\u9eb5
(lp1780
I1
asV\u9f34
(lp1781
I1
asV\u500b
(lp1782
I1
asV\U000217b5
(lp1783
I1
asV\u863a
(lp1784
I1
asV\u4c3e
(lp1785
I1
asV\u9e1e
(lp1786
I1
asV\u95c3
(lp1787
I1
asV\u96c5
(lp1788
I3
aI2
asV\u9744
(lp1789
I1
asV\u9bc7
(lp1790
I1
asV\u9846
(lp1791
I1
asV\u9aaf
(lp1792
I1
asV\u9db9
(lp1793
I1
asV\u8a52
(lp1794
I1
asV\u6f54
(lp1795
I1
asV\u53d7
(lp1796
I3
aI2
asV\u99db
(lp1797
I1
asV\u565a
(lp1798
I1
asV\u60e1
(lp1799
I1
asV\u65e3
(lp1800
I1
asV\u92ed
(lp1801
I1
asV\u936c
(lp1802
I1
asV\u77ef
(lp1803
I1
asV\u98f1
(lp1804
I1
asV\u9df3
(lp1805
I1
asV\u8076
(lp1806
I1
asV\u571e
(lp1807
I1
asV\u6578
(lp1808
I3
aI2
aI1
asV\u8ae7
(lp1809
I1
asV\u5180
(lp1810
I3
aI2
asV\u6dea
(lp1811
I1
asV\u4f54
(lp1812
I1
asV\u9c09
(lp1813
I1
asV\u7d88
(lp1814
I1
asV\u7e8a
(lp1815
I1
asV\u8811
(lp1816
I1
asV\u8d13
(lp1817
I1
asV\u8a92
(lp1818
I1
asV\u646f
(lp1819
I1
asV\u5096
(lp1820
I1
asV\u9419
(lp1821
I1
asV\u9598
(lp1822
I1
asV\u991b
(lp1823
I1
asV\u769a
(lp1824
I1
asV\u9a1d
(lp1825
I1
asV\u9b9c
(lp1826
I1
asV\u81a0
(lp1827
I3
aI2
aI1
asV\u8523
(lp1828
I1
asV\u8da8
(lp1829
I1
asV\u8eaa
(lp1830
I1
asV\u722d
(lp1831
I3
aI2
aI1
asV\u93ac
(lp1832
I1
asV\u5831
(lp1833
I1
asV\u79b0
(lp1834
I1
asV\u7d33
(lp1835
I1
asV\u7e35
(lp1836
I1
asV\u60b6
(lp1837
I1
asV\u893b
(lp1838
I1
asV\u6bbc
(lp1839
I1
asV\u6f3f
(lp1840
I1
asV\u9cf4
(lp1841
I1
asV\u91c0
(lp1842
I3
aI2
aI1
asV\u9077
(lp1843
I1
asV\u5da0
(lp1844
I1
asV\u9c49
(lp1845
I1
asV\u9dc8
(lp1846
I1
asV\u614b
(lp1847
I1
asV\u9a4c
(lp1848
I1
asV\u8ad2
(lp1849
I1
asV\u8e55
(lp1850
I1
asV\u4fd4
(lp1851
I1
asV\u9470
(lp1852
I1
asV\u9f5f
(lp1853
I1
asV\u7cde
(lp1854
I1
asV\u81e0
(lp1855
I1
asV\u6563
(lp1856
I2
asV\U000282e2
(lp1857
I1
asV\u6de8
(lp1858
I1
asV\u926d
(lp1859
I1
asV\u58fc
(lp1860
I1
asV\u9871
(lp1861
I1
asV\u99f0
(lp1862
I1
asV\U00027d73
(lp1863
I1
asV\u9e75
(lp1864
I1
asV\u86fa
(lp1865
I1
asV\u6f7f
(lp1866
I1
asV\u8cfe
(lp1867
I1
asV\u9200
(lp1868
I1
asV\u5102
(lp1869
I1
asV\u9b06
(lp1870
I1
asV\u7e08
(lp1871
I1
asV\u648f
(lp1872
I1
asV\u8a10
(lp1873
I1
asV\u8e93
(lp1874
I1
asV\u8d95
(lp1875
I3
aI2
aI1
asV\u9428
(lp1876
I1
asV\U000298b8
(lp1877
I1
asV\u551a
(lp1878
I1
asV\u599d
(lp1879
I1
asV\u981c
(lp1880
I1
asV\u63a1
(lp1881
I1
asV\u65a5
(lp1882
I3
aI2
asV\u6fa9
(lp1883
I1
asV\u92ab
(lp1884
I1
asV\u9a30
(lp1885
I1
asV\u9eb3
(lp1886
I1
asV\U00029932
(lp1887
I1
asV\u7db5
(lp1888
I1
asV\u8638
(lp1889
I3
aI2
asV\u6abb
(lp1890
I1
asV\u89bd
(lp1891
I1
asV\u6cbf
(lp1892
I3
aI2
asV\u8f3e
(lp1893
I1
asV\u9240
(lp1894
I1
asV\u76c3
(lp1895
I1
asV\u55c5
(lp1896
I3
aI2
asV\u9444
(lp1897
I1
asV\u58c7
(lp1898
I1
asV\u7b46
(lp1899
I1
asV\u62cb
(lp1900
I1
asV\u7be4
(lp1901
I1
asV\u81cd
(lp1902
I1
asV\u674e
(lp1903
I3
asV\U00021839
(lp1904
I1
asV\u8c54
(lp1905
I1
asV\u97d9
(lp1906
I1
asV\u9658
(lp1907
I1
asV\u99dd
(lp1908
I1
asV\u785c
(lp1909
I1
asV\u5f5e
(lp1910
I1
asV\u85e5
(lp1911
I1
asV\u8464
(lp1912
I1
asV\u68e7
(lp1913
I1
asV\u71ed
(lp1914
I1
asV\u9bf1
(lp1915
I1
asV\u5ef3
(lp1916
I1
asV\u6afb
(lp1917
I1
asV\u701f
(lp1918
I1
asV\u9301
(lp1919
I1
asV\u9280
(lp1920
I2
aI1
asV\u9807
(lp1921
I1
asV\u9f09
(lp1922
I1
asV\u7e88
(lp1923
I1
asV\u9d8a
(lp1924
I1
asV\u9396
(lp1925
I2
aI1
asV\u5a1b
(lp1926
I1
asV\u559a
(lp1927
I1
asV\u589c
(lp1928
I1
asV\u9c1f
(lp1929
I1
asV\u5f9e
(lp1930
I1
asV\u9d5d
(lp1931
I1
asV\u8525
(lp1932
I1
asV\u8f64
(lp1933
I1
asV\u8f29
(lp1934
I1
asV\u912d
(lp1935
I1
asV\u942f
(lp1936
I1
asV\u991c
(lp1937
I1
asV\u9b31
(lp1938
I2
aI1
asV\u7e33
(lp1939
I1
asV\u7d35
(lp1940
I1
asV\u71c8
(lp1941
I1
asV\u8a3b
(lp1942
I1
asV\u85ba
(lp1943
I1
asV\u6fbe
(lp1944
I1
asV\u9341
(lp1945
I1
asV\u72c0
(lp1946
I1
asV\u9bc6
(lp1947
I1
asV\u5ec8
(lp1948
I1
asV\u7dca
(lp1949
I1
asV\u614d
(lp1950
I1
asV\u80cc
(lp1951
I3
aI2
asV\u87ce
(lp1952
I1
asV\u7df9
(lp1953
I1
asV\u736b
(lp1954
I1
asV\u9a5b
(lp1955
I1
asV\u55da
(lp1956
I1
asV\u58dc
(lp1957
I1
asV\u7c5f
(lp1958
I1
asV\u8667
(lp1959
I1
asV\u81e2
(lp1960
I1
asV\u8ee8
(lp1961
I1
asV\u8dea
(lp1962
I3
aI2
asV\u7e73
(lp1963
I1
asV\u7cf4
(lp1964
I1
asV\u8077
(lp1965
I1
asV\u66f8
(lp1966
I1
asV\u85fa
(lp1967
I1
asV\u6ffe
(lp1968
I1
asV\u91cd
(lp1969
I2
asV\u5504
(lp1970
I1
asV\u9bc4
(lp1971
I1
asV\u8a91
(lp1972
I1
asV\u8b10
(lp1973
I1
asV\u8d14
(lp1974
I1
asV\u7197
(lp1975
I1
asV\u5699
(lp1976
I1
asV\u5718
(lp1977
I1
asV\u762e
(lp1978
I1
asV\u591c
(lp1979
I2
asV\u7e1e
(lp1980
I1
asV\u64a5
(lp1981
I1
asV\u6524
(lp1982
I1
asV\u965d
(lp1983
I1
asV\u50ad
(lp1984
I1
asV\u562e
(lp1985
I1
asV\u5b30
(lp1986
I1
asV\u96e3
(lp1987
I1
asV\u9832
(lp1988
I1
asV\u7cb5
(lp1989
I1
asV\u9d34
(lp1990
I1
asV\u6236
(lp1991
I1
asV\u6bbb
(lp1992
I1
asV\u6e3e
(lp1993
I1
asV\u92c1
(lp1994
I1
asV\u5340
(lp1995
I1
asV\u97c3
(lp1996
I1
asV\u7f48
(lp1997
I1
asV\U0002a0cd
(lp1998
I1
asV\u85cf
(lp1999
I3
aI2
asV\u8ad1
(lp2000
I1
asV\u6b50
(lp2001
I1
asV\u8cd5
(lp2002
I1
asV\u91d7
(lp2003
I1
asV\u96d9
(lp2004
I1
asV\u9bdb
(lp2005
I1
asV\u995c
(lp2006
I1
asV\u7e5e
(lp2007
I3
aI2
aI1
asV\u87e3
(lp2008
I1
asV\u743a
(lp2009
I1
asV\u69e7
(lp2010
I1
asV\u8a66
(lp2011
I3
aI2
aI1
asV\u53eb
(lp2012
I3
aI2
asV\u90ed
(lp2013
I3
asV\u716c
(lp2014
I1
asV\u766e
(lp2015
I1
asV\u9dbf
(lp2016
I1
asV\u61f7
(lp2017
I3
aI2
aI1
asV\u61e8
(lp2018
I1
asV\u8778
(lp2019
I1
asV\u647a
(lp2020
I1
asV\u88fd
(lp2021
I1
asV\u901f
(lp2022
I3
asV\u4e7e
(lp2023
I4
aI3
aI2
aI1
asV\u9201
(lp2024
I1
asV\u52c1
(lp2025
I1
asV\u9340
(lp2026
I1
asV\u7e09
(lp2027
I1
asV\u7f88
(lp2028
I1
asV\u650f
(lp2029
I1
asV\u8a11
(lp2030
I1
asV\u7d19
(lp2031
I1
asV\u8f13
(lp2032
I1
asV\u8b78
(lp2033
I1
asV\u7296
(lp2034
I1
asV\u7798
(lp2035
I1
asV\u581d
(lp2036
I1
asV\u9d1f
(lp2037
I1
asV\u8aa6
(lp2038
I1
asV\u8e29
(lp2039
I3
aI2
asV\u932b
(lp2040
I1
asV\u8caa
(lp2041
I1
asV\u91ac
(lp2042
I1
asV\u752f
(lp2043
I1
asV\u56ae
(lp2044
I1
asV\u7a31
(lp2045
I1
asV\u9bb0
(lp2046
I1
asV\u5f33
(lp2047
I1
asV\u96f2
(lp2048
I1
asV\u9c35
(lp2049
I1
asV\u9db4
(lp2050
I1
asV\u6137
(lp2051
I1
asV\u5f48
(lp2052
I1
asV\u89bc
(lp2053
I1
asV\u9241
(lp2054
I1
asV\u50c2
(lp2055
I1
asV\u9f77
(lp2056
I1
asV\U00029947
(lp2057
I1
asV\u7232
(lp2058
I1
asV\u7cf6
(lp2059
I1
asV\u61cc
(lp2060
I1
asV\u5157
(lp2061
I1
asV\U000298be
(lp2062
I1
asV\u9b5b
(lp2063
I1
asV\u74da
(lp2064
I1
asV\u529a
(lp2065
I1
asV\u9ede
(lp2066
I3
aI2
aI1
asV\u7de8
(lp2067
I2
aI1
asV\u8ae6
(lp2068
I1
asV\u9c0d
(lp2069
I1
asV\u8cea
(lp2070
I1
asV\u71ec
(lp2071
I1
asV\u9bf0
(lp2072
I2
aI1
asV\u5852
(lp2073
I1
asV\u7df4
(lp2074
I1
asV\u64fa
(lp2075
I3
aI2
aI1
asV\u6207
(lp2076
I1
asV\u8efe
(lp2077
I1
asV\u9204
(lp2078
I1
asV\u5e87
(lp2079
I3
asV\u9d06
(lp2080
I1
asV\u9808
(lp2081
I1
asV\u8f12
(lp2082
I1
asV\u8b95
(lp2083
I1
asV\u7018
(lp2084
I1
asV\u931a
(lp2085
I1
asV\u9949
(lp2086
I1
asV\u991e
(lp2087
I1
asV\u63a5
(lp2088
I3
aI2
asV\u89aa
(lp2089
I1
asV\u8828
(lp2090
I1
asV\u74ab
(lp2091
I1
asV\u77ad
(lp2092
I2
aI1
asV\u9433
(lp2093
I1
asV\u72af
(lp2094
I3
asV\u9c64
(lp2095
I1
asV\u7db1
(lp2096
I1
asV\u58b3
(lp2097
I1
asV\u93b2
(lp2098
I1
asV\u8cbb
(lp2099
I1
asV\u8abf
(lp2100
I1
asV\u96b4
(lp2101
I1
asV\u9742
(lp2102
I1
asV\u5244
(lp2103
I1
asV\u7d46
(lp2104
I1
asV\u64cb
(lp2105
I3
aI2
aI1
asV\u814e
(lp2106
I1
asV\u8dd1
(lp2107
I3
aI2
asV\u8c50
(lp2108
I1
asV\u8a54
(lp2109
I1
asV\u71d9
(lp2110
I1
asV\u7058
(lp2111
I1
asV\u935a
(lp2112
I1
asV\u995e
(lp2113
I1
asV\u8264
(lp2114
I1
asV\u5a66
(lp2115
I1
asV\u766c
(lp2116
I1
asV\u92ef
(lp2117
I1
asV\u7df1
(lp2118
I1
asV\u9f72
(lp2119
I1
asV\u5bf5
(lp2120
I1
asV\u7e79
(lp2121
I1
asV\u8cfb
(lp2122
I1
asV\u8ffd
(lp2123
I3
aI2
asV\u9e07
(lp2124
I1
asV\u7d86
(lp2125
I1
asV\u9909
(lp2126
I1
asV\u9b8a
(lp2127
I1
asV\u7192
(lp2128
I1
asV\u6a94
(lp2129
I1
asV\u5617
(lp2130
I1
asV\u5098
(lp2131
I1
asV\u939a
(lp2132
I1
asV\u7e9c
(lp2133
I1
asV\u9a1f
(lp2134
I1
asV\u5ec4
(lp2135
I1
asV\u6af1
(lp2136
I1
asV\u87a2
(lp2137
I1
asV\u9580
(lp2138
I1
asV\u542b
(lp2139
I3
aI2
asV\u922f
(lp2140
I1
asV\u7d31
(lp2141
I1
asV\u8139
(lp2142
I1
asV\u5c6c
(lp2143
I1
asV\u7043
(lp2144
I1
asV\u7345
(lp2145
I1
asV\U00029949
(lp2146
I1
asV\u58c8
(lp2147
I1
asV\u9bca
(lp2148
I1
asV\u6aa3
(lp2149
I1
asV\u4f5b
(lp2150
I4
asV\u8853
(lp2151
I1
asV\u95d6
(lp2152
I1
asV\u7159
(lp2153
I1
asV\u6a3a
(lp2154
I1
asV\u93da
(lp2155
I1
asV\u9a5f
(lp2156
I1
asV\u723e
(lp2157
I1
asV\u98e3
(lp2158
I1
asV\u6e67
(lp2159
I1
asV\u78fd
(lp2160
I1
asV\u7d71
(lp2161
I1
asV\u7cf0
(lp2162
I1
asV\u9873
(lp2163
I1
asV\u85f6
(lp2164
I1
asV\u5e7e
(lp2165
I1
asV\u6eab
(lp2166
I1
asV\u8a7f
(lp2167
I1
asV\u9481
(lp2168
I1
asV\u7602
(lp2169
I1
asV\u9285
(lp2170
I1
asV\u9304
(lp2171
I1
asV\u9c06
(lp2172
I1
asV\u8d10
(lp2173
I1
asV\u8993
(lp2174
I1
asV\u8a95
(lp2175
I1
asV\u8b14
(lp2176
I1
asV\u5099
(lp2177
I3
aI2
aI1
asV\u5118
(lp2178
I1
asV\u9b9f
(lp2179
I1
asV\u9370
(lp2180
I1
asV\u8622
(lp2181
I1
asV\u55ab
(lp2182
I1
asV\u8a2a
(lp2183
I1
asV\u93af
(lp2184
I1
asV\u9d30
(lp2185
I1
asV\u99b3
(lp2186
I1
asV\u7e32
(lp2187
I1
asV\u7ab5
(lp2188
I1
asV\u6436
(lp2189
I1
asV\u91c3
(lp2190
I1
asV\u7642
(lp2191
I1
asV\u92c5
(lp2192
I1
asV\u7344
(lp2193
I1
asV\u98e0
(lp2194
I1
asV\u9948
(lp2195
I1
asV\u65cb
(lp2196
I4
asV\u9a4a
(lp2197
I1
asV\u8cd1
(lp2198
I1
asV\u69d3
(lp2199
I1
asV\u9be2
(lp2200
I1
asV\u925a
(lp2201
I1
asV\u5edd
(lp2202
I1
asV\u9f5c
(lp2203
I1
asV\u985e
(lp2204
I1
asV\u6a11
(lp2205
I1
asV\u61e3
(lp2206
I1
asV\u6968
(lp2207
I1
asV\u53ef
(lp2208
I3
asV\u7d70
(lp2209
I1
asV\u5af5
(lp2210
I1
asV\u7b74
(lp2211
I1
asV\u6476
(lp2212
I1
asV\u8178
(lp2213
I1
asV\u6bff
(lp2214
I1
asV\u6fc1
(lp2215
I1
asV\u9384
(lp2216
I1
asV\u9296
(lp2217
I1
asV\u6c11
(lp2218
I2
asV\u8e92
(lp2219
I1
asV\u8a15
(lp2220
I1
asV\u9019
(lp2221
I1
asV\u9d1b
(lp2222
I1
asV\u929a
(lp2223
I1
asV\u9e1d
(lp2224
I1
asV\u9f9c
(lp2225
I1
asV\u8123
(lp2226
I1
asV\u66a2
(lp2227
I1
asV\u8aaa
(lp2228
I1
asV\u3473
(lp2229
I1
asV\u532f
(lp2230
I1
asV\u9c31
(lp2231
I1
asV\U00029db0
(lp2232
I1
asV\u9933
(lp2233
I1
asV\u9eb2
(lp2234
I1
asV\u6d3b
(lp2235
I3
aI2
asV\U000295c0
(lp2236
I1
asV\u56c2
(lp2237
I1
asV\u9245
(lp2238
I1
asV\u53c4
(lp2239
I1
asV\U00029f47
(lp2240
I1
asV\u79c8
(lp2241
I1
asV\u7aca
(lp2242
I1
asV\u7d79
(lp2243
I1
asV\u6953
(lp2244
I1
asV\u8ed2
(lp2245
I1
asV\u8a55
(lp2246
I1
asV\u9059
(lp2247
I1
asV\u91d8
(lp2248
I1
asV\u7d5b
(lp2249
I1
asV\u8b4e
(lp2250
I1
asV\u9b5f
(lp2251
I1
asV\u58de
(lp2252
I1
asV\u6163
(lp2253
I3
aI2
aI1
asV\u8ce6
(lp2254
I1
asV\u69e8
(lp2255
I1
asV\u756b
(lp2256
I1
asV\u6aea
(lp2257
I1
asV\u766d
(lp2258
I1
asV\u5df0
(lp2259
I1
asV\u9ef2
(lp2260
I1
asV\u9bf4
(lp2261
I1
asV\u8079
(lp2262
I1
asV\u61f8
(lp2263
I1
asV\u6ffc
(lp2264
I1
asV\u4b7f
(lp2265
I1
asV\U00029600
(lp2266
I1
asV\u5283
(lp2267
I1
asV\u7185
(lp2268
I1
asV\u7a08
(lp2269
I1
asV\U0002990a
(lp2270
I1
asV\u8e10
(lp2271
I1
asV\u8a02
(lp2272
I1
asV\u5716
(lp2273
I1
asV\u5399
(lp2274
I1
asV\u9c1c
(lp2275
I1
asV\u6620
(lp2276
I3
aI2
asV\u6522
(lp2277
I1
asV\u8ca7
(lp2278
I1
asV\u8f26
(lp2279
I1
asV\u5006
(lp2280
I1
asV\u95ad
(lp2281
I1
asV\u50af
(lp2282
I1
asV\u932e
(lp2283
I1
asV\u9d32
(lp2284
I1
asV\u9834
(lp2285
I1
asV\u8b3e
(lp2286
I1
asV\u97c1
(lp2287
I1
asV\u92c3
(lp2288
I1
asV\u91c5
(lp2289
I1
asV\u7044
(lp2290
I1
asV\u5f46
(lp2291
I1
asV\u9bc9
(lp2292
I1
asV\u994a
(lp2293
I1
asV\u85cd
(lp2294
I1
asV\U0002a0cf
(lp2295
I1
asV\u8fd1
(lp2296
I4
asV\u6ad3
(lp2297
I1
asV\u7d62
(lp2298
I1
asV\u71c9
(lp2299
I1
asV\u7258
(lp2300
I1
asV\u7ddd
(lp2301
I1
asV\u5c5c
(lp2302
I1
asV\u58df
(lp2303
I1
asV\u7864
(lp2304
I1
asV\u8562
(lp2305
I1
asV\u81e5
(lp2306
I1
asV\u8ce7
(lp2307
I1
asV\u896a
(lp2308
I1
asV\u736e
(lp2309
I1
asV\u7e70
(lp2310
I1
asV\u5d87
(lp2311
I1
asV\u7d72
(lp2312
I1
asV\u9d3f
(lp2313
I1
asV\u64f7
(lp2314
I1
asV\u9695
(lp2315
I1
asV\u8efb
(lp2316
I1
asV\u8b7e
(lp2317
I1
asV\u5680
(lp2318
I1
asV\u9203
(lp2319
I1
asV\u9582
(lp2320
I1
asV\u9084
(lp2321
I1
asV\u5c07
(lp2322
I4
aI1
asV\u7f86
(lp2323
I1
asV\u860b
(lp2324
I1
asV\u8c6c
(lp2325
I1
asV\u6a13
(lp2326
I1
asV\u58ef
(lp2327
I1
asV\u9319
(lp2328
I1
asV\u9298
(lp2329
I1
asV\u9e1b
(lp2330
I1
asV\u9d1d
(lp2331
I1
asV\u9b9e
(lp2332
I1
asV\u6fa6
(lp2333
I1
asV\u8aa8
(lp2334
I1
asV\u69aa
(lp2335
I1
asV\u93ae
(lp2336
I1
asV\u9db2
(lp2337
I1
asV\u9935
(lp2338
I1
asV\U000298b4
(lp2339
I1
asV\u8cbc
(lp2340
I1
asV\u4bbe
(lp2341
I1
asV\u56c0
(lp2342
I1
asV\u9c47
(lp2343
I1
asV\u7ac8
(lp2344
I1
asV\u6f51
(lp2345
I1
asV\u6dd2
(lp2346
I1
asV\u7d5d
(lp2347
I1
asV\u66e0
(lp2348
I4
aI1
asV\u6ae8
(lp2349
I1
asV\u947c
(lp2350
I1
asV\u7df2
(lp2351
I1
asV\u98f4
(lp2352
I1
asV\u8477
(lp2353
I1
asV\u87f6
(lp2354
I1
asV\u8e7b
(lp2355
I1
asV\u61fa
(lp2356
I1
asV\u8cfc
(lp2357
I1
asV\u687f
(lp2358
I1
asV\u7dd4
(lp2359
I1
asV\u5104
(lp2360
I1
asV\u9d87
(lp2361
I1
asV\u5b08
(lp2362
I1
asV\u980a
(lp2363
I1
asV\u8e91
(lp2364
I1
asV\u8b93
(lp2365
I1
asV\u5616
(lp2366
I1
asV\u9318
(lp2367
I1
asV\u7d1c
(lp2368
I1
asV\u6e26
(lp2369
I1
asV\u8b28
(lp2370
I1
asV\u91af
(lp2371
I2
aI1
asV\u922e
(lp2372
I1
asV\u9bb3
(lp2373
I1
asV\u9c32
(lp2374
I1
asV\u65b7
(lp2375
I1
asV\u8cbd
(lp2376
I1
asV\u9e0b
(lp2377
I1
asV\u69bf
(lp2378
I1
asV\u56c1
(lp2379
I1
asV\u93c3
(lp2380
I1
asV\U00028ad2
(lp2381
I1
asV\u50c5
(lp2382
I1
asV\u7dc7
(lp2383
I1
asV\u7e46
(lp2384
I1
asV\u5d0d
(lp2385
I1
asV\u584a
(lp2386
I1
asV\u81cf
(lp2387
I1
asV\u624e
(lp2388
I3
aI2
asV\u8ed1
(lp2389
I1
asV\u980f
(lp2390
I1
asV\u92d9
(lp2391
I1
asV\u9358
(lp2392
I1
asV\u505a
(lp2393
I3
aI2
asV\u7cdd
(lp2394
I1
asV\u9d5c
(lp2395
I1
asV\u99df
(lp2396
I1
asV\u6164
(lp2397
I1
asV\u8e66
(lp2398
I3
asV\U00024ae9
(lp2399
I1
asV\u54ed
(lp2400
I3
aI2
asV\u526e
(lp2401
I1
asV\u7f70
(lp2402
I1
asV\u7bf3
(lp2403
I1
asV\u7c72
(lp2404
I1
asV\U000298f5
(lp2405
I1
asV\u8cfd
(lp2406
I1
asV\u92aa
(lp2407
I1
asV\u9780
(lp2408
I1
asV\u7005
(lp2409
I1
asV\u7d07
(lp2410
I1
asV\u5b88
(lp2411
I3
aI2
asV\u588a
(lp2412
I1
asV\u640d
(lp2413
I1
asV\u858c
(lp2414
I1
asV\u4e11
(lp2415
I3
aI2
asV\u6f90
(lp2416
I1
asV\u6c92
(lp2417
I1
asV\u4a98
(lp2418
I1
asV\u9398
(lp2419
I1
asV\u7d9c
(lp2420
I1
asV\u6025
(lp2421
I3
aI2
asV\u61a4
(lp2422
I1
asV\u8ea6
(lp2423
I1
asV\u8a29
(lp2424
I1
asV\u6ba8
(lp2425
I1
asV\u55ac
(lp2426
I1
asV\u7e31
(lp2427
I1
asV\u7d42
(lp2428
I1
asV\u98f2
(lp2429
I1
asV\u99b4
(lp2430
I1
asV\u8f3b
(lp2431
I1
asV\u6dbc
(lp2432
I3
aI2
aI1
asV\u8abe
(lp2433
I1
asV\u5641
(lp2434
I1
asV\u9343
(lp2435
I1
asV\u6a23
(lp2436
I1
asV\u62ce
(lp2437
I3
aI2
asV\u5da2
(lp2438
I1
asV\u8855
(lp2439
I1
asV\u96d6
(lp2440
I1
asV\u93d8
(lp2441
I1
asV\u9c5d
(lp2442
I1
asV\u8493
(lp2443
I1
asV\u6065
(lp2444
I1
asV\u8a69
(lp2445
I1
asV\u946d
(lp2446
I1
asV\u92ee
(lp2447
I1
asV\u7cf2
(lp2448
I1
asV\u5875
(lp2449
I1
asV\u8577
(lp2450
I1
asV\u51d9
(lp2451
I1
asV\u6efe
(lp2452
I1
asV\u4c7d
(lp2453
I1
asV\u5e2b
(lp2454
I1
asV\u8afe
(lp2455
I1
asV\u5f85
(lp2456
I3
aI2
asV\u5287
(lp2457
I1
asV\u9106
(lp2458
I1
asV\u9589
(lp2459
I3
aI2
aI1
asV\u5408
(lp2460
I2
asV\u8a0c
(lp2461
I1
asV\u6191
(lp2462
I2
aI1
asV\u6493
(lp2463
I1
asV\u6795
(lp2464
I3
aI2
asV\u9916
(lp2465
I1
asV\u9bae
(lp2466
I1
asV\u939d
(lp2467
I1
asV\u5cf6
(lp2468
I1
asV\u89a1
(lp2469
I1
asV\u76b0
(lp2470
I1
asV\u85a9
(lp2471
I1
asV\u92dd
(lp2472
I1
asV\u9931
(lp2473
I1
asV\u9bad
(lp2474
I1
asV\u9eaf
(lp2475
I3
aI1
asV\u7d2e
(lp2476
I1
asV\u71b1
(lp2477
I1
asV\u7030
(lp2478
I1
asV\u9332
(lp2479
I1
asV\u57b5
(lp2480
I1
asV\u99c1
(lp2481
I1
asV\u88e1
(lp2482
I1
asV\u6b0a
(lp2483
I1
asV\u5c37
(lp2484
I1
asV\u92c7
(lp2485
I1
asV\u8ecf
(lp2486
I1
asV\u64d3
(lp2487
I1
asV\u9a62
(lp2488
I1
asV\u5ad7
(lp2489
I1
asV\u7dd9
(lp2490
I1
asV\u9c58
(lp2491
I1
asV\u93dd
(lp2492
I1
asV\u555e
(lp2493
I1
asV\u8ce3
(lp2494
I1
asV\u8e64
(lp2495
I1
asV\u82e7
(lp2496
I2
aI1
asV\u8166
(lp2497
I1
asV\u98eb
(lp2498
I1
asV\u84bc
(lp2499
I1
asV\u51f1
(lp2500
I1
asV\u7372
(lp2501
I3
aI2
aI1
asV\u5674
(lp2502
I1
asV\u8af7
(lp2503
I1
asV\u60fb
(lp2504
I1
asV\u9c03
(lp2505
I1
asV\u9207
(lp2506
I1
asV\u8a8c
(lp2507
I1
asV\u8e0f
(lp2508
I3
aI2
asV\u5d19
(lp2509
I1
asV\u9c6e
(lp2510
I1
asV\u929c
(lp2511
I1
asV\u6c23
(lp2512
I1
asV\u8f25
(lp2513
I1
asV\u6227
(lp2514
I1
asV\u5dae
(lp2515
I1
asV\u5433
(lp2516
I3
aI1
asV\u53b2
(lp2517
I1
asV\U00027735
(lp2518
I1
asV\u56b4
(lp2519
I1
asV\u8cb8
(lp2520
I1
asV\u863f
(lp2521
I1
asV\u9941
(lp2522
I1
asV\u98c0
(lp2523
I1
asV\u7c43
(lp2524
I1
asV\u9ec4
(lp2525
I3
asV\u5247
(lp2526
I1
asV\u9d6e
(lp2527
I1
asV\u8755
(lp2528
I1
asV\u984f
(lp2529
I1
asV\u9a57
(lp2530
I1
asV\u765f
(lp2531
I1
asV\u95de
(lp2532
I1
asV\u9e7a
(lp2533
I1
asV\u8ee4
(lp2534
I1
asV\u8569
(lp2535
I1
asV\u986b
(lp2536
I1
asV\u7e6f
(lp2537
I1
asV\u9d70
(lp2538
I1
asV\u7171
(lp2539
I1
asV\u5473
(lp2540
I3
aI2
asV\u89f6
(lp2541
I1
asV\u6d79
(lp2542
I1
asV\u6ffa
(lp2543
I1
asV\u62fc
(lp2544
I3
aI2
asV\u7d83
(lp2545
I1
asV\u9a02
(lp2546
I1
asV\u9387
(lp2547
I1
asV\u9006
(lp2548
I3
aI2
asV\u7489
(lp2549
I1
asV\u898b
(lp2550
I4
aI3
aI2
aI1
asV\u8a8d
(lp2551
I1
asV\u4f8f
(lp2552
I3
asV\u7149
(lp2553
I1
asV\u5816
(lp2554
I1
asV\u7d18
(lp2555
I1
asV\u9e1a
(lp2556
I1
asV\u731c
(lp2557
I3
aI2
asV\U00029db1
(lp2558
I1
asV\u8a22
(lp2559
I1
asV\u8ea5
(lp2560
I1
asV\u83a7
(lp2561
I1
asV\U0002a026
(lp2562
I1
asV\u98b3
(lp2563
I1
asV\u9c2e
(lp2564
I1
asV\u9130
(lp2565
I1
asV\u9232
(lp2566
I1
asV\u8836
(lp2567
I1
asV\u7a4d
(lp2568
I1
asV\u87bf
(lp2569
I1
asV\u9a42
(lp2570
I1
asV\u93c7
(lp2571
I1
asV\u69cb
(lp2572
I1
asV\u8acd
(lp2573
I1
asV\u8c4e
(lp2574
I3
aI2
aI1
asV\u9bd7
(lp2575
I1
asV\u7e5a
(lp2576
I1
asV\u52dd
(lp2577
I1
asV\u945e
(lp2578
I1
asV\u68e1
(lp2579
I1
asV\u8960
(lp2580
I1
asV\u8a62
(lp2581
I1
asV\u4ee5
(lp2582
I4
asV\u6f64
(lp2583
I3
aI2
aI1
asV\u9aed
(lp2584
I3
aI2
asV\u7c6e
(lp2585
I1
asV\u50f1
(lp2586
I1
asV\u993e
(lp2587
I1
asV\u7e6b
(lp2588
I1
asV\u9801
(lp2589
I1
asV\u9d03
(lp2590
I1
asV\u9307
(lp2591
I1
asV\u9588
(lp2592
I1
asV\u968a
(lp2593
I1
asV\u6190
(lp2594
I1
asV\u786f
(lp2595
I1
asV\u9d98
(lp2596
I1
asV\U00029d98
(lp2597
I1
asV\u811b
(lp2598
I1
asV\u571f
(lp2599
I2
asV\u6aa2
(lp2600
I1
asV\u6fa4
(lp2601
I1
asV\u792b
(lp2602
I1
asV\u9a2d
(lp2603
I1
asV\u9031
(lp2604
I1
asV\u5635
(lp2605
I1
asV\u8eba
(lp2606
I3
aI2
asV\u84cb
(lp2607
I1
asV\u64be
(lp2608
I1
asV\u9d43
(lp2609
I1
asV\u7e45
(lp2610
I1
asV\u9347
(lp2611
I1
asV\u7fa9
(lp2612
I1
asV\u95c8
(lp2613
I1
asV\u4f4f
(lp2614
I3
aI2
asV\u8553
(lp2615
I1
asV\u8655
(lp2616
I1
asV\u8af8
(lp2617
I1
asV\u7c59
(lp2618
I1
asV\u7dd8
(lp2619
I1
asV\u5eda
(lp2620
I1
asV\u525d
(lp2621
I1
asV\u93dc
(lp2622
I1
asV\u8ae2
(lp2623
I1
asV\u6fe4
(lp2624
I1
asV\u5a6d
(lp2625
I1
asV\u5bec
(lp2626
I1
asV\u8ecc
(lp2627
I1
asV\u9f52
(lp2628
I1
asV\u8b77
(lp2629
I3
aI2
aI1
asV\u68f6
(lp2630
I1
asV\u8efa
(lp2631
I1
asV\u64fe
(lp2632
I1
asV\u9b81
(lp2633
I1
asV\u9087
(lp2634
I1
asV\u9306
(lp2635
I1
asV\u91d9
(lp2636
I1
asV\u6595
(lp2637
I1
asV\u9e18
(lp2638
I1
asV\u929b
(lp2639
I1
asV\u7d1a
(lp2640
I1
asV\u7dcb
(lp2641
I1
asV\u771e
(lp2642
I1
asV\u652a
(lp2643
I1
asV\u99ad
(lp2644
I1
asV\u9230
(lp2645
I1
asV\u56b3
(lp2646
I1
asV\u9132
(lp2647
I1
asV\u5434
(lp2648
I3
asV\u82bb
(lp2649
I1
asV\u81bd
(lp2650
I1
asV\u64bf
(lp2651
I1
asV\u9bc1
(lp2652
I1
asV\u7a40
(lp2653
I2
aI1
asV\u9ec3
(lp2654
I3
aI1
asV\u9346
(lp2655
I1
asV\u97c9
(lp2656
I1
asV\U00029648
(lp2657
I1
asV\u8acb
(lp2658
I1
asV\u69cd
(lp2659
I1
asV\u884c
(lp2660
I3
aI2
asV\u4f4e
(lp2661
I3
aI2
asV\u9c39
(lp2662
I1
asV\u4b1d
(lp2663
I1
asV\u7db8
(lp2664
I1
asV\u5fd9
(lp2665
I3
aI2
asV\u5e58
(lp2666
I1
asV\u52db
(lp2667
I1
asV\u9d5a
(lp2668
I1
asV\u91dd
(lp2669
I1
asV\u905c
(lp2670
I1
asV\U0002775e
(lp2671
I1
asV\u8a60
(lp2672
I1
asV\u4ee3
(lp2673
I4
aI3
asV\u6de5
(lp2674
I1
asV\u856a
(lp2675
I1
asV\u99ed
(lp2676
I1
asV\u986c
(lp2677
I1
asV\u53f1
(lp2678
I2
asV\u9412
(lp2679
I1
asV\u42fb
(lp2680
I1
asV\u9114
(lp2681
I1
asV\U00029e03
(lp2682
I1
asV\u7d05
(lp2683
I1
asV\u5d97
(lp2684
I1
asV\u7007
(lp2685
I1
asV\u758a
(lp2686
I1
asV\u9f4e
(lp2687
I1
asV\u6311
(lp2688
I3
aI2
asV\u6613
(lp2689
I4
aI3
asV\u6192
(lp2690
I1
asV\u8494
(lp2691
I1
asV\u9817
(lp2692
I1
asV\u7e98
(lp2693
I1
asV\u721b
(lp2694
I1
asV\u9d9a
(lp2695
I1
asV\u779e
(lp2696
I3
aI2
aI1
asV\u8b21
(lp2697
I1
asV\u8aa0
(lp2698
I1
asV\u6027
(lp2699
I3
aI2
asV\u9a2b
(lp2700
I1
asV\u992d
(lp2701
I1
asV\u5331
(lp2702
I1
asV\u9633
(lp2703
I3
asV\u71b2
(lp2704
I1
asV\u5e43
(lp2705
I1
asV\u7d45
(lp2706
I1
asV\u9047
(lp2707
I3
aI2
asV\u93c6
(lp2708
I1
asV\u56c8
(lp2709
I1
asV\u6a4b
(lp2710
I1
asV\u55ca
(lp2711
I1
asV\u8555
(lp2712
I1
asV\u64d4
(lp2713
I1
asV\u5857
(lp2714
I1
asV\u9bd6
(lp2715
I1
asV\u5f59
(lp2716
I1
asV\u525b
(lp2717
I1
asV\u9dda
(lp2718
I1
asV\u97de
(lp2719
I1
asV\u6b61
(lp2720
I1
asV\u8e63
(lp2721
I1
asV\u937a
(lp2722
I1
asV\u8ce4
(lp2723
I1
asV\u66e8
(lp2724
I1
asV\u9a6b
(lp2725
I1
asV\u85ea
(lp2726
I1
asV\u9c6f
(lp2727
I1
asV\u9e7c
(lp2728
I1
asV\u7371
(lp2729
I1
asV\u92f0
(lp2730
I1
asV\u9673
(lp2731
I2
aI1
asV\u7575
(lp2732
I1
asV\u6ef8
(lp2733
I1
asV\u6dfa
(lp2734
I1
asV\u5b00
(lp2735
I1
asV\u9802
(lp2736
I3
aI2
aI1
asV\u7d04
(lp2737
I1
asV\u9689
(lp2738
I1
asV\u890c
(lp2739
I1
asV\u7d2c
(lp2740
I1
asV\u4c59
(lp2741
I1
asV\u8514
(lp2742
I1
asV\u9a16
(lp2743
I1
asV\u939b
(lp2744
I1
asV\u7a2e
(lp2745
I1
asV\u761e
(lp2746
I1
asV\u8aa1
(lp2747
I1
asV\u8b20
(lp2748
I1
asV\u9bab
(lp2749
I1
asV\u78ad
(lp2750
I1
asV\u792c
(lp2751
I1
asV\u7daf
(lp2752
I1
asV\u7e2e
(lp2753
I1
asV\u92b1
(lp2754
I1
asV\u9032
(lp2755
I1
asV\u89b7
(lp2756
I1
asV\u8a36
(lp2757
I1
asV\u8f38
(lp2758
I1
asV\u663e
(lp2759
I2
asV\u5fc3
(lp2760
I3
aI2
asV\u7d44
(lp2761
I1
asV\u7246
(lp2762
I1
asV\u9748
(lp2763
I1
asV\u7e36
(lp2764
I1
asV\u965e
(lp2765
I1
asV\u8266
(lp2766
I1
asV\u5beb
(lp2767
I3
aI2
aI1
asV\u98ed
(lp2768
I2
aI1
asV\u596c
(lp2769
I1
asV\u9def
(lp2770
I1
asV\u7e6e
(lp2771
I1
asV\u92f1
(lp2772
I1
asV\u5370
(lp2773
I3
aI2
asV\u77f3
(lp2774
I3
asV\u9072
(lp2775
I1
asV\u81bf
(lp2776
I1
asV\u8ef9
(lp2777
I1
asV\u9805
(lp2778
I2
aI1
asV\u6c7a
(lp2779
I1
asV\u617c
(lp2780
I1
asV\u9a01
(lp2781
I1
asV\u76ea
(lp2782
I1
asV\u61df
(lp2783
I1
asV\u9d84
(lp2784
I1
asV\u7a6d
(lp2785
I1
asV\u880d
(lp2786
I1
asV\u8d0f
(lp2787
I1
asV\u9c42
(lp2788
I1
asV\u8594
(lp2789
I1
asV\u9917
(lp2790
I1
asV\u931b
(lp2791
I1
asV\u701d
(lp2792
I1
asV\u919c
(lp2793
I1
asV\u4ba0
(lp2794
I1
asV\u6f23
(lp2795
I1
asV\u982d
(lp2796
I1
asV\u99ac
(lp2797
I1
asV\u9d2f
(lp2798
I1
asV\u93b0
(lp2799
I1
asV\u9435
(lp2800
I2
aI1
asV\u7a1f
(lp2801
I1
asV\u8ab6
(lp2802
I1
asV\u8cba
(lp2803
I1
asV\u7d1b
(lp2804
I1
asV\u9a41
(lp2805
I1
asV\u5bc0
(lp2806
I1
asV\u904a
(lp2807
I1
asV\u9c45
(lp2808
I1
asV\u7dc4
(lp2809
I1
asV\u9147
(lp2810
I1
asV\u7649
(lp2811
I1
asV\u74ca
(lp2812
I1
asV\u6ece
(lp2813
I1
asV\u63d0
(lp2814
I3
aI2
asV\u9957
(lp2815
I1
asV\u9ad6
(lp2816
I1
asV\u935b
(lp2817
I2
aI1
asV\u705d
(lp2818
I1
asV\u51dc
(lp2819
I1
asV\u555f
(lp2820
I1
asV\u56de
(lp2821
I2
asV\u8a61
(lp2822
I1
asV\u8f63
(lp2823
I1
asV\u82e6
(lp2824
I3
aI2
asV\u5b6b
(lp2825
I1
asV\u9d6f
(lp2826
I1
asV\u93f0
(lp2827
I1
asV\u9452
(lp2828
I1
asV\u8af6
(lp2829
I1
asV\u8cfa
(lp2830
I1
asV\u807d
(lp2831
I3
aI2
aI1
asV\u61fc
(lp2832
I1
asV\u7d81
(lp2833
I3
aI2
aI1
asV\u7c00
(lp2834
I1
asV\U00021883
(lp2835
I1
asV\u9dd7
(lp2836
I1
asV\u5687
(lp2837
I1
asV\u5008
(lp2838
I1
asV\u4a8f
(lp2839
I1
asV\u8591
(lp2840
I1
asV\u6214
(lp2841
I1
asV\u9e97
(lp2842
I3
aI2
aI1
asV\u7d16
(lp2843
I1
asV\u9818
(lp2844
I3
aI2
aI1
asV\u9b1a
(lp2845
I1
asV\u979d
(lp2846
I1
asV\u561c
(lp2847
I1
asV\u585a
(lp2848
I1
asV\u8cb0
(lp2849
I1
asV\u81a9
(lp2850
I1
asV\u7aaf
(lp2851
I1
asV\u95b1
(lp2852
I1
asV\u50b3
(lp2853
I3
aI2
aI1
asV\u93b5
(lp2854
I1
asV\u9234
(lp2855
I1
asV\u7958
(lp2856
I1
asV\u6d36
(lp2857
I1
asV\u64bb
(lp2858
I1
asV\u613e
(lp2859
I1
asV\u9dc1
(lp2860
I1
asV\u9a44
(lp2861
I1
asV\u51c9
(lp2862
I2
asV\u934a
(lp2863
I2
aI1
asV\u8e4c
(lp2864
I1
asV\u8acf
(lp2865
I1
asV\u99d9
(lp2866
I1
asV\u9858
(lp2867
I1
asV\u9b5a
(lp2868
I3
aI1
asV\u97dd
(lp2869
I1
asV\u92df
(lp2870
I1
asV\u8de1
(lp2871
I1
asV\u8f62
(lp2872
I1
asV\u7210
(lp2873
I1
asV\u5e6c
(lp2874
I1
asV\u596e
(lp2875
I1
asV\u52e9
(lp2876
I1
asV\u93f5
(lp2877
I1
asV\u5274
(lp2878
I1
asV\u6ef7
(lp2879
I1
asV\u64fb
(lp2880
I1
asV\u6feb
(lp2881
I1
asV\u62ff
(lp2882
I3
aI2
asV\u617e
(lp2883
I1
asV\u9803
(lp2884
I1
asV\u9586
(lp2885
I1
asV\u5109
(lp2886
I1
asV\u938a
(lp2887
I1
asV\u898e
(lp2888
I1
asV\u6490
(lp2889
I1
asV\u7e17
(lp2890
I1
asV\u9d96
(lp2891
I1
asV\U00029919
(lp2892
I1
asV\u5b9a
(lp2893
I3
aI2
asV\u919e
(lp2894
I1
asV\u8ca0
(lp2895
I1
asV\u8823
(lp2896
I1
asV\u8aa4
(lp2897
I1
asV\u85a6
(lp2898
I1
asV\u7843
(lp2899
I1
asV\u98fd
(lp2900
I1
asV\u7c2b
(lp2901
I1
asV\u99ae
(lp2902
I1
asV\u5531
(lp2903
I3
aI2
asV\u74b0
(lp2904
I1
asV\u9472
(lp2905
I1
asV\u98c8
(lp2906
I1
asV\u6bba
(lp2907
I3
aI2
aI1
asV\u623f
(lp2908
I2
asV\u81be
(lp2909
I1
asV\u9d41
(lp2910
I1
asV\u9843
(lp2911
I1
asV\u7ac4
(lp2912
I1
asV\u7647
(lp2913
I1
asV\u55c6
(lp2914
I1
asV\u5149
(lp2915
I3
aI2
asV\u8f4d
(lp2916
I1
asV\u6ecc
(lp2917
I1
asV\u5e57
(lp2918
I1
asV\u9dd6
(lp2919
I1
asV\u58d8
(lp2920
I1
asV\u96dc
(lp2921
I3
aI2
aI1
asV\u8ce0
(lp2922
I1
asV\u8863
(lp2923
I3
aI2
asV\u8ae4
(lp2924
I1
asV\u7d06
(lp2925
I1
asV\u5eec
(lp2926
I1
asV\u7319
(lp2927
I1
asV\u9375
(lp2928
I1
asV\u6df6
(lp2929
I1
asV\u647b
(lp2930
I1
asV\u61fe
(lp2931
I1
asV\u7d00
(lp2932
I1
asV\u9e02
(lp2933
I1
asV\u6f80
(lp2934
I1
asV\u5108
(lp2935
I1
asV\u8e8d
(lp2936
I3
aI2
aI1
asV\u5f97
(lp2937
I3
aI2
asV\u9918
(lp2938
I1
asV\u9a1a
(lp2939
I1
asV\u539f
(lp2940
I2
asV\u8ca1
(lp2941
I1
asV\u8aa5
(lp2942
I1
asV\u6128
(lp2943
I1
asV\u7dab
(lp2944
I1
asV\u9ce7
(lp2945
I1
asV\u982e
(lp2946
I1
asV\u5132
(lp2947
I1
asV\u8938
(lp2948
I1
asV\u8a3a
(lp2949
I1
asV\U0002a03e
(lp2950
I1
asV\u7d40
(lp2951
I1
asV\u99c3
(lp2952
I1
asV\u7ac5
(lp2953
I1
asV\u77c7
(lp2954
I1
asV\u64e0
(lp2955
I1
asV\u50c9
(lp2956
I1
asV\u5c0d
(lp2957
I3
aI2
aI1
asV\u8ecd
(lp2958
I1
asV\u5fd7
(lp2959
I3
aI2
asV\u9c56
(lp2960
I1
asV\u58d9
(lp2961
I1
asV\u9958
(lp2962
I1
asV\u9a5a
(lp2963
I1
asV\u975c
(lp2964
I1
asV\u93df
(lp2965
I1
asV\u905e
(lp2966
I1
asV\u6ce1
(lp2967
I2
asV\u6ae5
(lp2968
I1
asV\u8466
(lp2969
I1
asV\u9deb
(lp2970
I1
asV\u7de6
(lp2971
I1
asV\u9f6c
(lp2972
I1
asV\u7570
(lp2973
I1
asV\u91f3
(lp2974
I1
asV\u7672
(lp2975
I1
asV\u52f5
(lp2976
I1
asV\u8c76
(lp2977
I1
asV\u88f9
(lp2978
I3
aI2
asV\u9015
(lp2979
I1
asV\u477c
(lp2980
I1
asV\u807e
(lp2981
I1
asV\u9c01
(lp2982
I1
asV\u9903
(lp2983
I1
asV\u7a05
(lp2984
I1
asV\u9b84
(lp2985
I1
asV\u5707
(lp2986
I1
asV\u9a40
(lp2987
I1
asV\u7009
(lp2988
I1
asV\u8d0b
(lp2989
I1
asV\u528a
(lp2990
I1
asV\u4e0d
(lp2991
I4
asV\u6b0f
(lp2992
I1
asV\u42d9
(lp2993
I1
asV\u9c08
(lp2994
I1
asV\u942b
(lp2995
I1
asV\U0002961d
(lp2996
I1
asV\u779c
(lp2997
I1
asV\u931f
(lp2998
I1
asV\u6ea2
(lp2999
I3
aI2
asV\u8a25
(lp3000
I1
asV\u6ba4
(lp3001
I1
asV\u6727
(lp3002
I1
asV\u7e2d
(lp3003
I1
asV\u98ae
(lp3004
I1
asV\u56b2
(lp3005
I1
asV\u53b4
(lp3006
I1
asV\u8cb6
(lp3007
I1
asV\U00024aba
(lp3008
I1
asV\u9dc0
(lp3009
I1
asV\u9943
(lp3010
I1
asV\u5ec2
(lp3011
I1
asV\u9a45
(lp3012
I1
asV\u7bc4
(lp3013
I1
asV\u75e0
(lp3014
I1
asV\u5049
(lp3015
I1
asV\u51c8
(lp3016
I1
asV\u8b4f
(lp3017
I1
asV\u6451
(lp3018
I1
asV\u9f57
(lp3019
I1
asV\u9859
(lp3020
I1
asV\u99d8
(lp3021
I1
asV\u8f4e
(lp3022
I1
asV\u565d
(lp3023
I1
asV\u97dc
(lp3024
I1
asV\u50de
(lp3025
I1
asV\u6069
(lp3026
I4
asV\u81e8
(lp3027
I3
aI2
aI1
asV\u7e6d
(lp3028
I1
asV\u9b6f
(lp3029
I1
asV\u8efc
(lp3030
I1
asV\u9471
(lp3031
I1
asV\u55f0
(lp3032
I1
asV\u5152
(lp3033
I1
asV\u5275
(lp3034
I1
asV\u55b2
(lp3035
I1
asV\u6f77
(lp3036
I1
asV\u8879
(lp3037
I1
asV\u89f8
(lp3038
I1
asV\u8afa
(lp3039
I1
asV\u7d02
(lp3040
I1
asV\u8b16
(lp3041
I1
asV\u9208
(lp3042
I1
asV\u8e8b
(lp3043
I1
asV\u6c0c
(lp3044
I1
asV\u8b0e
(lp3045
I1
asV\u52d9
(lp3046
I1
asV\u6293
(lp3047
I3
aI2
asV\u9dd9
(lp3048
I1
asV\u969b
(lp3049
I1
asV\u991a
(lp3050
I1
asV\u559d
(lp3051
I3
aI2
asV\u8aa3
(lp3052
I1
asV\u89a5
(lp3053
I1
asV\u5eab
(lp3054
I1
asV\u7dad
(lp3055
I1
asV\u98af
(lp3056
I1
asV\u9b2e
(lp3057
I1
asV\u5630
(lp3058
I1
asV\u92b3
(lp3059
I1
asV\u8cb7
(lp3060
I1
asV\u6a38
(lp3061
I1
asV\u775e
(lp3062
I1
asV\u633e
(lp3063
I1
asV\u5e40
(lp3064
I1
asV\u8a0a
(lp3065
I1
asV\u93c9
(lp3066
I1
asV\u9248
(lp3067
I1
asV\u8ecb
(lp3068
I1
asV\u88cf
(lp3069
I1
asV\u6b4e
(lp3070
I1
asV\u8552
(lp3071
I1
asV\u76db
(lp3072
I3
aI2
asV\u7055
(lp3073
I1
asV\u90df
(lp3074
I1
asV\u7c64
(lp3075
I1
asV\u4fe1
(lp3076
I3
aI2
asV\u78ba
(lp3077
I1
asV\u8766
(lp3078
I1
asV\U000295e1
(lp3079
I1
asV\u616a
(lp3080
I1
asV\u7c6c
(lp3081
I1
asV\u98ef
(lp3082
I1
asV\u7670
(lp3083
I1
asV\u52f3
(lp3084
I1
asV\u91f5
(lp3085
I1
asV\u5074
(lp3086
I3
aI2
aI1
asV\u86fb
(lp3087
I1
asV\u6aeb
(lp3088
I1
asV\u9a03
(lp3089
I1
asV\u9905
(lp3090
I1
asV\u518a
(lp3091
I1
asV\u8d0d
(lp3092
I1
asV\u8b8e
(lp3093
I1
asV\U0002a115
(lp3094
I1
asV\u5b19
(lp3095
I1
asV\u95ab
(lp3096
I1
asV\u501f
(lp3097
I3
aI2
asV\u8a23
(lp3098
I1
asV\u8427
(lp3099
I2
asV\u93e2
(lp3100
I1
asV\u6329
(lp3101
I1
asV\u7e2b
(lp3102
I1
asV\u582f
(lp3103
I1
asV\u5bae
(lp3104
I1
asV\u79ae
(lp3105
I1
asV\u9233
(lp3106
I1
asV\u95b2
(lp3107
I1
asV\u50b4
(lp3108
I1
asV\u4fb6
(lp3109
I1
asV\u8b39
(lp3110
I1
asV\u6ab8
(lp3111
I1
asV\u89ba
(lp3112
I1
asV\u64bc
(lp3113
I3
aI2
asV\u9a43
(lp3114
I1
asV\u9dc2
(lp3115
I1
asV\u9945
(lp3116
I1
asV\u98c4
(lp3117
I3
aI2
aI1
asV\u9403
(lp3118
I1
asV\u97c6
(lp3119
I1
asV\u6253
(lp3120
I3
aI2
asV\u9c57
(lp3121
I1
asV\u9ad8
(lp3122
I3
aI2
asV\u99da
(lp3123
I1
asV\u755d
(lp3124
I1
asV\u93de
(lp3125
I1
asV\u8f61
(lp3126
I1
asV\u8a63
(lp3127
I1
asV\u5e6b
(lp3128
I3
aI2
aI1
asV\u9cec
(lp3129
I1
asV\u986f
(lp3130
I2
aI1
asV\u56f0
(lp3131
I3
aI2
asV\u70f4
(lp3132
I1
asV\u4c77
(lp3133
I1
asV\u6af8
(lp3134
I1
asV\u64fc
(lp3135
I1
asV\u7e81
(lp3136
I1
asV\u9b83
(lp3137
I1
asV\u9c02
(lp3138
I1
asV\u9904
(lp3139
I1
asV\u7587
(lp3140
I1
asV\u5606
(lp3141
I1
asV\u5289
(lp3142
I1
asV\u9308
(lp3143
I1
asV\u300a
(lp3144
I3
asV\u898f
(lp3145
I1
asV\u8a0e
(lp3146
I1
asV\u9d97
(lp3147
I1
asV\u751c
(lp3148
I3
aI2
asV\u921e
(lp3149
I1
asV\u8ea1
(lp3150
I1
asV\u78da
(lp3151
I1
asV\u7d30
(lp3152
I1
asV\u6328
(lp3153
I3
aI2
asV\u5d2c
(lp3154
I1
asV\u9a2e
(lp3155
I1
asV\u96b1
(lp3156
I2
aI1
asV\u93b3
(lp3157
I1
asV\u9432
(lp3158
I1
asV\u50b5
(lp3159
I1
asV\u9134
(lp3160
I1
asV\u8ab9
(lp3161
I1
asV\u87bb
(lp3162
I1
asV\u95c6
(lp3163
I1
asV\u5ec1
(lp3164
I1
asV\u9daf
(lp3165
I1
asV\U00029944
(lp3166
I1
asV\u55c7
(lp3167
I1
asV\u7646
(lp3168
I1
asV\u92c9
(lp3169
I1
asV\u9348
(lp3170
I1
asV\u9436
(lp3171
I1
asV\u8a4e
(lp3172
I1
asV\u8452
(lp3173
I1
asV\u7dd7
(lp3174
I1
asV\u7ad9
(lp3175
I3
aI2
asV\u5b58
(lp3176
I2
asV\u7f8e
(lp3177
I3
aI2
asV\u9dbb
(lp3178
I1
asV\u71df
(lp3179
I1
asV\u925e
(lp3180
I1
asV\u723a
(lp3181
I1
asV\u8964
(lp3182
I1
asV\u6368
(lp3183
I1
asV\u9d6c
(lp3184
I1
asV\u7472
(lp3185
I1
asV\u90f5
(lp3186
I1
asV\u58ae
(lp3187
I1
asV\u6b78
(lp3188
I1
asV\u87fb
(lp3189
I1
asV\u84fd
(lp3190
I1
asV\u627e
(lp3191
I3
asV\u5805
(lp3192
I1
asV\u9209
(lp3193
I1
asV\u908a
(lp3194
I1
asV\u690f
(lp3195
I1
asV\u9d17
(lp3196
I1
asV\u7e96
(lp3197
I1
asV\u9a19
(lp3198
I3
aI2
aI1
asV\u941d
(lp3199
I1
asV\u511f
(lp3200
I1
asV\u9344
(lp3201
I1
asV\u6fa0
(lp3202
I1
asV\u8ca2
(lp3203
I1
asV\u6229
(lp3204
I1
asV\u5c46
(lp3205
I1
asV\u9c2d
(lp3206
I1
asV\u9dac
(lp3207
I1
asV\u9670
(lp3208
I1
asV\u7aae
(lp3209
I1
asV\u9333
(lp3210
I1
asV\u6a39
(lp3211
I1
asV\u379e
(lp3212
I1
asV\u843d
(lp3213
I3
aI2
asV\u65bc
(lp3214
I4
aI3
aI2
aI1
asV\u9249
(lp3215
I1
asV\u93c8
(lp3216
I1
asV\u894f
(lp3217
I1
asV\u58bb
(lp3218
I1
asV\u5d57
(lp3219
I1
asV\U00027a59
(lp3220
I1
asV\u58da
(lp3221
I1
asV\u95dc
(lp3222
I3
aI2
aI1
asV\u52de
(lp3223
I1
asV\u4fe0
(lp3224
I1
asV\u8ce2
(lp3225
I1
asV\u69e4
(lp3226
I1
asV\u9d50
(lp3227
I1
asV\u747d
(lp3228
I1
asV\u9c6d
(lp3229
I1
asV\u7dec
(lp3230
I1
asV\u9aee
(lp3231
I1
asV\u7671
(lp3232
I1
asV\u57f0
(lp3233
I1
asV\u5373
(lp3234
I3
asV\u5075
(lp3235
I1
asV\u71f4
(lp3236
I1
asV\u56a8
(lp3237
I1
as.